Certificate:
    Data:
        Version: 3 (0x2)
        Serial Number: 6 (0x6)
        Signature Algorithm: sha256WithRSAEncryption
        Issuer: CN=Test CA
        Validity
            Not Before: Jan  1 00:00:00 1970 GMT
            Not After : Oct  6 19:16:20 2034 GMT
        Subject: CN=127.0.0.1
        Subject Public Key Info:
            Public Key Algorithm: rsaEncryption
                RSA Public-Key: (2048 bit)
                Modulus:
                    00:a4:fe:c2:94:e3:b4:f9:60:be:40:db:5d:a6:8c:
                    10:cb:37:9a:1a:a0:ee:e8:26:1c:b7:7f:68:1f:db:
                    24:fc:70:d2:42:5c:b2:e8:b6:26:5a:00:4c:22:bf:
                    75:d2:7f:73:ac:21:3d:f6:a5:94:e8:92:bb:ea:77:
                    b4:f5:4f:96:2c:01:ec:e2:5f:85:98:5d:17:8b:db:
                    71:e6:cb:2f:39:9c:cb:89:55:67:94:bc:e7:11:6b:
                    29:c0:ca:ee:bc:ab:02:62:be:2b:5b:59:96:94:2a:
                    f9:94:3e:94:a1:f7:d1:71:10:34:9b:05:38:b6:27:
                    28:8f:d8:9b:33:e2:08:a5:50:c3:3c:69:3a:33:39:
                    ad:0f:b4:8b:70:95:6b:e1:03:32:47:70:48:63:c1:
                    52:70:76:43:97:ff:55:74:83:42:50:cb:ac:f7:75:
                    17:69:17:c9:c6:93:6b:8f:1b:1b:fe:db:c7:6f:42:
                    b8:00:48:b9:07:1f:76:2d:02:b7:03:1b:90:a2:ba:
                    91:0e:92:08:9b:1c:e4:70:b0:19:52:b0:41:33:38:
                    6d:f5:71:f7:40:a4:57:31:23:03:e0:bf:a6:a4:b8:
                    f3:02:af:71:fd:84:4c:54:d2:38:83:38:52:fd:8d:
                    7d:69:ef:12:24:c2:a3:2c:b1:dc:8e:2c:11:6b:78:
                    81:d5
                Exponent: 65537 (0x10001)
        X509v3 extensions:
            X509v3 Subject Alternative Name: 
                DNS:127.0.0.1, DNS:127.0.0.2
    Signature Algorithm: sha256WithRSAEncryption
         49:6b:51:1b:7a:7e:2d:71:f8:85:3c:c7:f6:ed:48:4b:b2:48:
         4a:85:1a:a9:e7:92:3e:d6:a3:55:ad:91:de:ce:1f:0a:42:a2:
         42:1e:f7:e3:28:81:1d:89:42:3e:3b:82:93:20:72:69:46:0e:
         e1:6a:19:72:5e:72:07:67:dd:0f:6a:e2:36:e7:29:3b:8c:d8:
         64:d2:11:40:ea:39:3a:08:a1:62:61:54:3f:d5:a1:60:f3:11:
         b2:3b:7e:0a:c3:e7:e9:b6:65:30:f0:d1:7c:d1:8d:6f:6e:e8:
         18:c7:4f:ad:24:9e:04:5a:c3:a2:ce:e0:67:08:70:93:b0:7c:
         e1:04:2f:cb:ea:4d:19:18:56:ab:a4:e8:0f:82:d5:bd:39:96:
         54:e2:7c:71:56:dc:bc:22:29:d2:3a:69:8d:83:e7:71:cd:e5:
         a9:54:cc:37:17:99:90:a1:5e:c9:3d:89:7a:af:49:12:0a:8b:
         00:5b:d4:3d:9c:59:08:de:d6:c7:7f:02:2c:cc:bd:0e:42:9e:
         dd:d0:4e:72:a3:af:29:39:e2:81:c5:c9:bf:ad:8f:12:2c:b4:
         8d:23:59:db:cb:98:39:2f:b2:4d:c9:55:55:a4:71:d1:28:a1:
         ad:8e:e7:e1:b9:30:3a:7b:30:47:b0:8d:ee:1d:81:75:bc:95:
         87:5d:ff:08
-----BEGIN CERTIFICATE-----
MIICxDCCAaygAwIBAgIBBjANBgkqhkiG9w0BAQsFADASMRAwDgYDVQQDDAdUZXN0
IENBMB4XDTcwMDEwMTAwMDAwMFoXDTM0MTAwNjE5MTYyMFowFDESMBAGA1UEAwwJ
MTI3LjAuMC4xMIIBIjANBgkqhkiG9w0BAQEFAAOCAQ8AMIIBCgKCAQEApP7ClOO0
+WC+QNtdpowQyzeaGqDu6CYct39oH9sk/HDSQlyy6LYmWgBMIr910n9zrCE99qWU
6JK76ne09U+WLAHs4l+FmF0Xi9tx5ssvOZzLiVVnlLznEWspwMruvKsCYr4rW1mW
lCr5lD6UoffRcRA0mwU4ticoj9ibM+IIpVDDPGk6MzmtD7SLcJVr4QMyR3BIY8FS
cHZDl/9VdINCUMus93UXaRfJxpNrjxsb/tvHb0K4AEi5Bx92LQK3AxuQorqRDpII
mxzkcLAZUrBBMzht9XH3QKRXMSMD4L+mpLjzAq9x/YRMVNI4gzhS/Y19ae8SJMKj
LLHcjiwRa3iB1QIDAQABoyMwITAfBgNVHREEGDAWggkxMjcuMC4wLjGCCTEyNy4w
LjAuMjANBgkqhkiG9w0BAQsFAAOCAQEASWtRG3p+LXH4hTzH9u1IS7JISoUaqeeS
PtajVa2R3s4fCkKiQh734yiBHYlCPjuCkyByaUYO4WoZcl5yB2fdD2riNucpO4zY
ZNIRQOo5OgihYmFUP9WhYPMRsjt+CsPn6bZlMPDRfNGNb27oGMdPrSSeBFrDos7g
Zwhwk7B84QQvy+pNGRhWq6ToD4LVvTmWVOJ8cVbcvCIp0jppjYPncc3lqVTMNxeZ
kKFeyT2Jeq9JEgqLAFvUPZxZCN7Wx38CLMy9DkKe3dBOcqOvKTnigcXJv62PEiy0
jSNZ28uYOS+yTclVVaRx0SihrY7n4bkwOnswR7CN7h2BdbyVh13/CA==
-----END CERTIFICATE-----
