Certificate:
    Data:
        Version: 3 (0x2)
        Serial Number: 13 (0xd)
        Signature Algorithm: sha256WithRSAEncryption
        Issuer: CN=Test CA
        Validity
            Not Before: Jan  1 00:00:00 1970 GMT
            Not After : Oct  6 19:16:20 2034 GMT
        Subject: CN=Test CA
        Subject Public Key Info:
            Public Key Algorithm: rsaEncryption
                RSA Public-Key: (2048 bit)
                Modulus:
                    00:e9:0c:53:de:f7:1e:84:30:73:ab:36:c2:b9:f4:
                    0b:eb:50:37:fb:49:00:c1:75:44:2e:1f:5c:aa:bc:
                    1b:08:61:8b:cc:25:b1:3a:ed:fb:9c:76:42:e2:7b:
                    0f:39:60:28:8b:8b:2f:b7:37:cf:d0:47:c9:ee:aa:
                    cd:cd:34:ab:18:0c:16:1e:96:b6:60:83:18:58:4a:
                    f5:11:3d:d9:dd:53:20:22:e4:0c:3a:cb:54:34:8d:
                    d0:bf:f8:f3:08:ce:f5:0f:8f:05:b6:69:55:b2:f6:
                    bc:ec:a0:de:76:ea:5d:a9:54:bd:78:aa:8b:7e:7e:
                    f4:d1:d4:5e:5a:ea:96:aa:81:c8:bd:7a:b8:b0:4b:
                    68:2f:79:84:85:ab:13:ba:ee:69:e6:d5:ef:de:cf:
                    02:23:cc:98:67:30:76:c2:0c:3d:1e:f3:56:90:08:
                    59:4d:1e:a7:29:0a:8f:a9:ad:e0:ab:55:bf:66:34:
                    38:a3:71:ab:0e:84:25:fb:cc:41:24:c6:13:94:0c:
                    07:ad:09:9f:b6:15:43:32:70:8c:3e:1d:e1:b7:95:
                    ac:7d:3a:46:1f:7a:6c:a7:66:63:2a:02:81:f8:a1:
                    ba:bc:bd:9f:c0:9c:4b:34:88:07:5a:e6:06:b0:fc:
                    db:fc:99:10:73:81:84:2d:67:eb:ab:38:d6:12:d7:
                    83:15
                Exponent: 65537 (0x10001)
        X509v3 extensions:
            X509v3 Basic Constraints: critical
                CA:FALSE
            X509v3 Key Usage: critical
                Certificate Sign, CRL Sign
            X509v3 Subject Key Identifier: 
                A7:C8:E2:98:D9:6F:71:FC:4D:61:1E:EC:2E:F5:3D:0B:77:E6:C6:BD
            Netscape Comment: 
                Puppet Server Internal Certificate
            X509v3 Authority Key Identifier: 
                keyid:A7:C8:E2:98:D9:6F:71:FC:4D:61:1E:EC:2E:F5:3D:0B:77:E6:C6:BD

    Signature Algorithm: sha256WithRSAEncryption
         28:22:b4:5d:8e:8d:8b:a0:3e:05:e2:2c:e9:dd:35:eb:de:90:
         a3:cf:42:ec:14:e4:2f:0f:42:a5:61:2d:5a:18:28:88:20:b1:
         c6:19:19:d0:e4:51:12:6f:32:26:95:ad:14:03:73:11:cd:c1:
         35:48:ce:7e:91:da:22:38:23:eb:24:44:e0:50:65:b8:48:20:
         14:27:15:80:d0:a5:5c:99:eb:00:d4:e2:53:7f:de:f1:3c:72:
         b2:8f:09:a8:63:e7:44:47:90:8d:1e:aa:f7:9f:99:20:8f:35:
         78:68:f1:b9:8d:a9:57:b7:80:87:c5:2f:f8:3e:0b:0f:84:68:
         de:0f:61:a2:f4:87:b2:90:f5:a7:ed:e4:e6:55:14:81:24:a9:
         4c:ac:b8:60:a0:fd:1c:e7:b2:d3:b3:3c:82:a5:f9:26:b6:7b:
         c4:09:33:fe:a4:5a:a1:00:68:30:f1:f5:84:d8:48:17:0f:e5:
         8a:0f:53:b5:63:f7:0b:9f:e1:28:be:03:1b:b4:50:2d:a8:ab:
         9c:3f:ba:0e:4a:c3:e5:17:39:83:9e:31:50:81:a1:1b:3e:99:
         1a:ca:d5:de:16:e7:49:11:b0:dc:d3:10:d3:74:56:fd:b7:18:
         0a:48:ec:ce:7f:98:f3:38:55:a4:6b:7d:c0:f0:dd:c1:15:68:
         5d:bc:8b:03
-----BEGIN CERTIFICATE-----
MIIDNDCCAhygAwIBAgIBDTANBgkqhkiG9w0BAQsFADASMRAwDgYDVQQDDAdUZXN0
IENBMB4XDTcwMDEwMTAwMDAwMFoXDTM0MTAwNjE5MTYyMFowEjEQMA4GA1UEAwwH
VGVzdCBDQTCCASIwDQYJKoZIhvcNAQEBBQADggEPADCCAQoCggEBAOkMU973HoQw
c6s2wrn0C+tQN/tJAMF1RC4fXKq8Gwhhi8wlsTrt+5x2QuJ7DzlgKIuLL7c3z9BH
ye6qzc00qxgMFh6WtmCDGFhK9RE92d1TICLkDDrLVDSN0L/48wjO9Q+PBbZpVbL2
vOyg3nbqXalUvXiqi35+9NHUXlrqlqqByL16uLBLaC95hIWrE7ruaebV797PAiPM
mGcwdsIMPR7zVpAIWU0epykKj6mt4KtVv2Y0OKNxqw6EJfvMQSTGE5QMB60Jn7YV
QzJwjD4d4beVrH06Rh96bKdmYyoCgfihury9n8CcSzSIB1rmBrD82/yZEHOBhC1n
66s41hLXgxUCAwEAAaOBlDCBkTAMBgNVHRMBAf8EAjAAMA4GA1UdDwEB/wQEAwIB
BjAdBgNVHQ4EFgQUp8jimNlvcfxNYR7sLvU9C3fmxr0wMQYJYIZIAYb4QgENBCQW
IlB1cHBldCBTZXJ2ZXIgSW50ZXJuYWwgQ2VydGlmaWNhdGUwHwYDVR0jBBgwFoAU
p8jimNlvcfxNYR7sLvU9C3fmxr0wDQYJKoZIhvcNAQELBQADggEBACgitF2OjYug
PgXiLOndNevekKPPQuwU5C8PQqVhLVoYKIggscYZGdDkURJvMiaVrRQDcxHNwTVI
zn6R2iI4I+skROBQZbhIIBQnFYDQpVyZ6wDU4lN/3vE8crKPCahj50RHkI0eqvef
mSCPNXho8bmNqVe3gIfFL/g+Cw+EaN4PYaL0h7KQ9aft5OZVFIEkqUysuGCg/Rzn
stOzPIKl+Sa2e8QJM/6kWqEAaDDx9YTYSBcP5YoPU7Vj9wuf4Si+Axu0UC2oq5w/
ug5Kw+UXOYOeMVCBoRs+mRrK1d4W50kRsNzTENN0Vv23GApI7M5/mPM4VaRrfcDw
3cEVaF28iwM=
-----END CERTIFICATE-----
