Certificate:
    Data:
        Version: 3 (0x2)
        Serial Number: 3 (0x3)
        Signature Algorithm: sha256WithRSAEncryption
        Issuer: CN=Test CA
        Validity
            Not Before: Jan  1 00:00:00 1970 GMT
            Not After : Oct  6 19:16:20 2034 GMT
        Subject: CN=Test CA Subauthority
        Subject Public Key Info:
            Public Key Algorithm: rsaEncryption
                RSA Public-Key: (2048 bit)
                Modulus:
                    00:ed:0b:ab:e3:3d:05:12:f4:8c:21:48:5b:73:e9:
                    8e:aa:7c:ce:9e:a9:84:5b:ae:00:49:12:10:b9:20:
                    30:33:ca:70:2f:1f:db:5f:60:9b:40:a6:6f:3e:62:
                    e9:ca:63:91:82:f8:d1:b6:e2:86:d2:e9:9e:c2:72:
                    ab:e2:8a:c7:d8:b8:5e:49:31:3b:dc:4e:c3:2a:8a:
                    de:58:56:3d:39:e8:ba:3d:b7:23:dd:a4:7e:03:68:
                    0a:b6:22:c2:c5:61:e1:9b:a1:71:d1:b4:80:c7:70:
                    bd:f6:21:c5:cd:da:f2:c2:62:8c:91:de:f5:bf:d4:
                    46:85:71:0f:ac:50:8a:f7:7a:65:af:9a:72:8b:ea:
                    3f:ef:bc:55:91:77:12:55:a8:56:cc:98:53:7d:07:
                    7a:4f:45:04:c1:68:85:2d:38:85:f1:81:f8:97:2e:
                    ec:79:83:7f:98:7c:8a:fd:6a:e0:17:69:7d:0a:92:
                    02:e6:a5:c0:7d:d6:55:f2:56:ed:f4:f6:87:99:c7:
                    d5:9f:bb:15:97:f3:06:d5:aa:8c:27:fc:62:7f:a1:
                    94:9b:14:72:a9:56:9f:ab:5e:92:7f:a5:be:29:43:
                    eb:ab:9d:db:cb:c4:82:c8:2c:e7:99:61:42:81:05:
                    2a:4b:99:a0:27:8c:4f:44:79:87:67:58:aa:57:0d:
                    19:fd
                Exponent: 65537 (0x10001)
        X509v3 extensions:
            X509v3 Basic Constraints: critical
                CA:FALSE
            X509v3 Key Usage: critical
                Certificate Sign, CRL Sign
            X509v3 Subject Key Identifier: 
                EE:24:14:AC:33:8A:83:5D:3C:91:9E:0C:BD:67:EF:2E:42:6B:61:24
            Netscape Comment: 
                Puppet Server Internal Certificate
            X509v3 Authority Key Identifier: 
                keyid:A7:C8:E2:98:D9:6F:71:FC:4D:61:1E:EC:2E:F5:3D:0B:77:E6:C6:BD

    Signature Algorithm: sha256WithRSAEncryption
         32:ee:a4:ab:2f:5a:90:44:8e:4d:67:96:7a:a4:ff:93:36:19:
         be:fb:67:4a:2e:57:4b:e8:b9:bd:78:29:55:56:3a:00:4b:42:
         e9:f0:1f:2d:c7:00:fd:c6:2b:ed:0a:8f:f4:9c:cf:cb:26:47:
         af:e9:24:5e:f1:5a:a3:93:ae:05:1e:b0:50:a5:27:d0:41:b2:
         5b:92:56:6e:7b:cd:45:23:36:b3:28:b9:3d:db:e5:67:8f:01:
         fe:2c:18:59:6f:8e:4f:57:b3:4b:dd:f3:f5:89:4c:b0:b8:64:
         fb:ee:91:bc:4a:8a:cb:e2:04:54:00:7a:21:59:72:fa:e2:84:
         7b:74:8c:5a:49:cf:4c:20:60:09:ac:37:03:ac:70:84:9a:dd:
         77:d7:22:f3:af:c9:44:c5:91:88:fa:4a:6e:62:5b:4a:19:aa:
         16:c5:86:b6:90:65:38:09:5d:5e:36:49:0e:ad:d4:d9:2a:60:
         7c:0e:be:f7:35:b7:79:f9:f7:aa:48:d6:b1:59:a3:1e:11:9e:
         52:f0:73:f6:f6:93:94:e7:ee:95:50:a2:5c:51:3c:2c:4a:6e:
         43:e8:04:eb:50:7a:da:a4:92:8f:f3:b8:a2:86:b3:4a:7c:c4:
         c8:58:ce:82:e5:71:46:ab:07:e9:b0:3c:85:54:d3:86:33:6f:
         9f:09:37:70
-----BEGIN CERTIFICATE-----
MIIDQTCCAimgAwIBAgIBAzANBgkqhkiG9w0BAQsFADASMRAwDgYDVQQDDAdUZXN0
IENBMB4XDTcwMDEwMTAwMDAwMFoXDTM0MTAwNjE5MTYyMFowHzEdMBsGA1UEAwwU
VGVzdCBDQSBTdWJhdXRob3JpdHkwggEiMA0GCSqGSIb3DQEBAQUAA4IBDwAwggEK
AoIBAQDtC6vjPQUS9IwhSFtz6Y6qfM6eqYRbrgBJEhC5IDAzynAvH9tfYJtApm8+
YunKY5GC+NG24obS6Z7CcqviisfYuF5JMTvcTsMqit5YVj056Lo9tyPdpH4DaAq2
IsLFYeGboXHRtIDHcL32IcXN2vLCYoyR3vW/1EaFcQ+sUIr3emWvmnKL6j/vvFWR
dxJVqFbMmFN9B3pPRQTBaIUtOIXxgfiXLux5g3+YfIr9auAXaX0KkgLmpcB91lXy
Vu309oeZx9WfuxWX8wbVqown/GJ/oZSbFHKpVp+rXpJ/pb4pQ+urndvLxILILOeZ
YUKBBSpLmaAnjE9EeYdnWKpXDRn9AgMBAAGjgZQwgZEwDAYDVR0TAQH/BAIwADAO
BgNVHQ8BAf8EBAMCAQYwHQYDVR0OBBYEFO4kFKwzioNdPJGeDL1n7y5Ca2EkMDEG
CWCGSAGG+EIBDQQkFiJQdXBwZXQgU2VydmVyIEludGVybmFsIENlcnRpZmljYXRl
MB8GA1UdIwQYMBaAFKfI4pjZb3H8TWEe7C71PQt35sa9MA0GCSqGSIb3DQEBCwUA
A4IBAQAy7qSrL1qQRI5NZ5Z6pP+TNhm++2dKLldL6Lm9eClVVjoAS0Lp8B8txwD9
xivtCo/0nM/LJkev6SRe8Vqjk64FHrBQpSfQQbJbklZue81FIzazKLk92+VnjwH+
LBhZb45PV7NL3fP1iUywuGT77pG8SorL4gRUAHohWXL64oR7dIxaSc9MIGAJrDcD
rHCEmt131yLzr8lExZGI+kpuYltKGaoWxYa2kGU4CV1eNkkOrdTZKmB8Dr73Nbd5
+feqSNaxWaMeEZ5S8HP29pOU5+6VUKJcUTwsSm5D6ATrUHrapJKP87iihrNKfMTI
WM6C5XFGqwfpsDyFVNOGM2+fCTdw
-----END CERTIFICATE-----
