Certificate:
    Data:
        Version: 3 (0x2)
        Serial Number: 2 (0x2)
        Signature Algorithm: sha256WithRSAEncryption
        Issuer: CN=Test CA
        Validity
            Not Before: Jan  1 00:00:00 1970 GMT
            Not After : Oct  6 19:16:20 2034 GMT
        Subject: CN=Test CA
        Subject Public Key Info:
            Public Key Algorithm: rsaEncryption
                RSA Public-Key: (2048 bit)
                Modulus:
                    00:e9:0c:53:de:f7:1e:84:30:73:ab:36:c2:b9:f4:
                    0b:eb:50:37:fb:49:00:c1:75:44:2e:1f:5c:aa:bc:
                    1b:08:61:8b:cc:25:b1:3a:ed:fb:9c:76:42:e2:7b:
                    0f:39:60:28:8b:8b:2f:b7:37:cf:d0:47:c9:ee:aa:
                    cd:cd:34:ab:18:0c:16:1e:96:b6:60:83:18:58:4a:
                    f5:11:3d:d9:dd:53:20:22:e4:0c:3a:cb:54:34:8d:
                    d0:bf:f8:f3:08:ce:f5:0f:8f:05:b6:69:55:b2:f6:
                    bc:ec:a0:de:76:ea:5d:a9:54:bd:78:aa:8b:7e:7e:
                    f4:d1:d4:5e:5a:ea:96:aa:81:c8:bd:7a:b8:b0:4b:
                    68:2f:79:84:85:ab:13:ba:ee:69:e6:d5:ef:de:cf:
                    02:23:cc:98:67:30:76:c2:0c:3d:1e:f3:56:90:08:
                    59:4d:1e:a7:29:0a:8f:a9:ad:e0:ab:55:bf:66:34:
                    38:a3:71:ab:0e:84:25:fb:cc:41:24:c6:13:94:0c:
                    07:ad:09:9f:b6:15:43:32:70:8c:3e:1d:e1:b7:95:
                    ac:7d:3a:46:1f:7a:6c:a7:66:63:2a:02:81:f8:a1:
                    ba:bc:bd:9f:c0:9c:4b:34:88:07:5a:e6:06:b0:fc:
                    db:fc:99:10:73:81:84:2d:67:eb:ab:38:d6:12:d7:
                    83:15
                Exponent: 65537 (0x10001)
        X509v3 extensions:
            X509v3 Basic Constraints: critical
                CA:TRUE
            X509v3 Key Usage: critical
                Certificate Sign, CRL Sign
            X509v3 Subject Key Identifier: 
                A7:C8:E2:98:D9:6F:71:FC:4D:61:1E:EC:2E:F5:3D:0B:77:E6:C6:BD
            Netscape Comment: 
                Puppet Server Internal Certificate
            X509v3 Authority Key Identifier: 
                keyid:A7:C8:E2:98:D9:6F:71:FC:4D:61:1E:EC:2E:F5:3D:0B:77:E6:C6:BD

    Signature Algorithm: sha256WithRSAEncryption
         d0:43:da:cd:cf:35:cf:96:5e:05:c2:f8:ce:c5:5f:0e:e3:9d:
         dd:cb:aa:97:36:23:6d:18:cf:01:69:cc:33:96:d9:45:a9:2d:
         b3:ca:ae:74:01:c5:e0:ee:73:eb:fb:42:e6:ef:11:ad:cc:4a:
         2e:55:b9:cb:e4:b3:a9:af:67:ea:55:b6:28:76:f1:2d:90:34:
         1b:4f:2b:3a:22:ed:3d:3e:e3:e4:f1:a6:db:a9:18:4a:2c:05:
         73:7f:a4:61:c6:d5:cb:c1:88:ab:3a:7b:42:11:b6:ca:e4:f5:
         22:c7:51:b2:49:a9:08:a3:6e:00:e9:81:85:4f:c8:8b:18:56:
         e4:c2:20:73:ee:e1:c7:92:a8:0b:2b:e2:22:ba:97:22:50:66:
         6c:ef:fc:36:12:13:60:6d:7c:9e:b1:bd:8c:bc:cf:14:8a:4e:
         09:69:31:30:46:f4:c9:e2:97:81:fc:ce:bb:d8:03:68:45:5a:
         70:4c:11:cf:dc:b9:79:0f:6e:6a:8d:63:bc:4b:34:22:a9:c3:
         09:4e:da:b6:9a:d1:10:7b:d9:e6:98:57:0b:2d:0c:ed:61:64:
         69:f6:90:73:b7:db:be:9f:e2:8d:21:f2:ae:96:c3:44:9c:38:
         bb:bc:09:18:3f:75:fc:c8:b1:20:82:68:94:0b:ed:43:ab:3d:
         65:98:98:a2
-----BEGIN CERTIFICATE-----
MIIDNzCCAh+gAwIBAgIBAjANBgkqhkiG9w0BAQsFADASMRAwDgYDVQQDDAdUZXN0
IENBMB4XDTcwMDEwMTAwMDAwMFoXDTM0MTAwNjE5MTYyMFowEjEQMA4GA1UEAwwH
VGVzdCBDQTCCASIwDQYJKoZIhvcNAQEBBQADggEPADCCAQoCggEBAOkMU973HoQw
c6s2wrn0C+tQN/tJAMF1RC4fXKq8Gwhhi8wlsTrt+5x2QuJ7DzlgKIuLL7c3z9BH
ye6qzc00qxgMFh6WtmCDGFhK9RE92d1TICLkDDrLVDSN0L/48wjO9Q+PBbZpVbL2
vOyg3nbqXalUvXiqi35+9NHUXlrqlqqByL16uLBLaC95hIWrE7ruaebV797PAiPM
mGcwdsIMPR7zVpAIWU0epykKj6mt4KtVv2Y0OKNxqw6EJfvMQSTGE5QMB60Jn7YV
QzJwjD4d4beVrH06Rh96bKdmYyoCgfihury9n8CcSzSIB1rmBrD82/yZEHOBhC1n
66s41hLXgxUCAwEAAaOBlzCBlDAPBgNVHRMBAf8EBTADAQH/MA4GA1UdDwEB/wQE
AwIBBjAdBgNVHQ4EFgQUp8jimNlvcfxNYR7sLvU9C3fmxr0wMQYJYIZIAYb4QgEN
BCQWIlB1cHBldCBTZXJ2ZXIgSW50ZXJuYWwgQ2VydGlmaWNhdGUwHwYDVR0jBBgw
FoAUp8jimNlvcfxNYR7sLvU9C3fmxr0wDQYJKoZIhvcNAQELBQADggEBANBD2s3P
Nc+WXgXC+M7FXw7jnd3Lqpc2I20YzwFpzDOW2UWpLbPKrnQBxeDuc+v7QubvEa3M
Si5Vucvks6mvZ+pVtih28S2QNBtPKzoi7T0+4+TxptupGEosBXN/pGHG1cvBiKs6
e0IRtsrk9SLHUbJJqQijbgDpgYVPyIsYVuTCIHPu4ceSqAsr4iK6lyJQZmzv/DYS
E2BtfJ6xvYy8zxSKTglpMTBG9Mnil4H8zrvYA2hFWnBMEc/cuXkPbmqNY7xLNCKp
wwlO2raa0RB72eaYVwstDO1hZGn2kHO3276f4o0h8q6Ww0ScOLu8CRg/dfzIsSCC
aJQL7UOrPWWYmKI=
-----END CERTIFICATE-----
