Certificate Revocation List (CRL):
        Version 2 (0x1)
        Signature Algorithm: sha256WithRSAEncryption
        Issuer: CN=Test CA
        Last Update: Jan  1 00:00:00 1970 GMT
        Next Update: Oct  6 19:16:20 2034 GMT
        CRL extensions:
            X509v3 Authority Key Identifier: 
                keyid:A7:C8:E2:98:D9:6F:71:FC:4D:61:1E:EC:2E:F5:3D:0B:77:E6:C6:BD

            X509v3 CRL Number: 
                0
No Revoked Certificates.
    Signature Algorithm: sha256WithRSAEncryption
         47:65:59:c9:cd:dc:3e:a4:53:c2:ba:99:16:ab:36:3e:e7:b2:
         60:12:a4:d6:58:66:06:71:72:29:a7:e8:02:50:0d:7e:37:c9:
         ad:08:3d:2d:13:61:f8:e6:55:86:e5:05:20:a9:f1:a4:d7:ec:
         9b:0e:89:f9:93:ef:42:23:6e:8e:f6:fc:31:f7:f3:f9:16:7e:
         ee:23:39:c2:c5:f5:69:f2:d3:94:38:67:a2:40:a3:ba:73:5a:
         f9:bb:91:be:4b:90:63:29:76:88:6c:d5:53:47:69:c9:c1:68:
         ff:9d:7b:4e:bd:5d:34:b4:da:43:ea:88:5a:b5:cf:49:a1:af:
         c8:13:3e:cd:ee:5a:a0:be:48:17:14:8f:f2:7b:d7:0f:fe:7a:
         be:95:73:6b:cc:4a:5d:74:d5:b4:ae:db:5c:e9:5f:07:84:b4:
         53:6e:78:4d:fa:e9:bc:0a:f3:00:7b:1e:10:d2:10:85:6e:9a:
         f8:84:90:cd:6f:12:3e:12:57:71:b8:bd:57:22:11:5c:df:b9:
         79:1b:e8:b9:ab:d2:bc:da:46:e2:6d:ca:55:9a:c0:98:36:82:
         27:63:b0:15:62:64:36:85:a7:d3:24:31:b0:92:1e:f5:18:4f:
         ce:da:6f:53:fe:36:da:c1:ff:43:bf:0e:a1:70:8f:06:02:58:
         96:12:ba:2f
-----BEGIN X509 CRL-----
MIIBizB1AgEBMA0GCSqGSIb3DQEBCwUAMBIxEDAOBgNVBAMMB1Rlc3QgQ0EXDTcw
MDEwMTAwMDAwMFoXDTM0MTAwNjE5MTYyMFqgLzAtMB8GA1UdIwQYMBaAFKfI4pjZ
b3H8TWEe7C71PQt35sa9MAoGA1UdFAQDAgEAMA0GCSqGSIb3DQEBCwUAA4IBAQBH
ZVnJzdw+pFPCupkWqzY+57JgEqTWWGYGcXIpp+gCUA1+N8mtCD0tE2H45lWG5QUg
qfGk1+ybDon5k+9CI26O9vwx9/P5Fn7uIznCxfVp8tOUOGeiQKO6c1r5u5G+S5Bj
KXaIbNVTR2nJwWj/nXtOvV00tNpD6ohatc9Joa/IEz7N7lqgvkgXFI/ye9cP/nq+
lXNrzEpddNW0rttc6V8HhLRTbnhN+um8CvMAex4Q0hCFbpr4hJDNbxI+EldxuL1X
IhFc37l5G+i5q9K82kbibcpVmsCYNoInY7AVYmQ2hafTJDGwkh71GE/O2m9T/jba
wf9Dvw6hcI8GAliWErov
-----END X509 CRL-----
