Certificate:
    Data:
        Version: 3 (0x2)
        Serial Number: 9 (0x9)
        Signature Algorithm: sha256WithRSAEncryption
        Issuer: CN=Test CA Subauthority
        Validity
            Not Before: Jan  1 00:00:00 1970 GMT
            Not After : Oct  6 19:16:20 2034 GMT
        Subject: CN=ec
        Subject Public Key Info:
            Public Key Algorithm: id-ecPublicKey
                Public-Key: (256 bit)
                pub:
                    04:51:1d:db:8e:1d:5d:c3:6a:10:38:15:e6:f3:af:
                    9a:67:9b:f8:1f:1b:a1:4f:28:4d:25:bf:db:5c:d6:
                    e6:28:b3:b3:90:a5:4d:cc:1e:af:6f:16:cf:63:f1:
                    78:1c:6c:50:26:cb:0d:97:13:f9:23:25:70:84:a4:
                    fd:18:c0:3c:cb
                ASN1 OID: prime256v1
                NIST CURVE: P-256
    Signature Algorithm: sha256WithRSAEncryption
         e4:f3:45:31:d2:f3:c3:20:99:4d:d8:a6:7f:36:22:03:36:a5:
         03:a1:31:fc:31:73:1c:17:ab:92:f3:5d:0e:ac:d5:93:34:eb:
         ca:b2:7e:b7:00:87:72:59:d4:fe:dd:ea:be:52:4f:b3:c7:02:
         ae:1d:27:70:5d:69:af:d8:bb:55:a0:c9:21:29:a0:d9:90:8c:
         5c:58:91:29:3c:5d:9a:20:7a:da:e7:25:61:f3:54:35:9f:a9:
         df:0d:10:4e:30:10:b7:f4:18:4f:e1:b1:92:d9:d5:7f:79:14:
         0a:9f:f5:2a:df:1e:d0:ff:18:79:12:b7:e9:aa:0b:bb:23:4f:
         4d:70:46:16:4b:44:17:72:3f:23:48:60:84:3a:fd:75:b0:b5:
         7a:c4:5d:a3:c8:80:17:e7:fd:c0:ed:c8:9a:1c:9b:9f:3f:75:
         43:94:ec:41:da:d2:c8:60:d5:0a:49:8c:e4:8d:2a:e5:6d:7c:
         7d:4d:b5:98:0a:99:d4:ef:c5:50:87:81:25:34:72:73:bd:c6:
         8b:a4:7a:4f:ff:ef:6a:eb:92:e9:c7:0c:44:68:5c:00:4e:f2:
         77:d3:e0:20:24:65:77:3a:7c:55:ec:28:0e:6a:05:d6:43:38:
         2d:33:b3:a6:16:27:47:28:8c:f8:93:fe:fa:70:f2:18:56:d8:
         e6:b7:80:85
-----BEGIN CERTIFICATE-----
MIIB2TCBwqADAgECAgEJMA0GCSqGSIb3DQEBCwUAMB8xHTAbBgNVBAMMFFRlc3Qg
Q0EgU3ViYXV0aG9yaXR5MB4XDTcwMDEwMTAwMDAwMFoXDTM0MTAwNjE5MTYyMFow
DTELMAkGA1UEAwwCZWMwWTATBgcqhkjOPQIBBggqhkjOPQMBBwNCAARRHduOHV3D
ahA4Febzr5pnm/gfG6FPKE0lv9tc1uYos7OQpU3MHq9vFs9j8XgcbFAmyw2XE/kj
JXCEpP0YwDzLMA0GCSqGSIb3DQEBCwUAA4IBAQDk80Ux0vPDIJlN2KZ/NiIDNqUD
oTH8MXMcF6uS810OrNWTNOvKsn63AIdyWdT+3eq+Uk+zxwKuHSdwXWmv2LtVoMkh
KaDZkIxcWJEpPF2aIHra5yVh81Q1n6nfDRBOMBC39BhP4bGS2dV/eRQKn/Uq3x7Q
/xh5Erfpqgu7I09NcEYWS0QXcj8jSGCEOv11sLV6xF2jyIAX5/3A7ciaHJufP3VD
lOxB2tLIYNUKSYzkjSrlbXx9TbWYCpnU78VQh4ElNHJzvcaLpHpP/+9q65LpxwxE
aFwATvJ30+AgJGV3OnxV7CgOagXWQzgtM7OmFidHKIz4k/76cPIYVtjmt4CF
-----END CERTIFICATE-----
