Certificate:
    Data:
        Version: 3 (0x2)
        Serial Number: 10 (0xa)
        Signature Algorithm: sha256WithRSAEncryption
        Issuer: CN=Test CA Subauthority
        Validity
            Not Before: Jan  1 00:00:00 1970 GMT
            Not After : Oct  6 19:16:20 2034 GMT
        Subject: CN=ed25519
        Subject Public Key Info:
            Public Key Algorithm: ED25519
                ED25519 Public-Key:
                pub:
                    cd:d2:e6:b1:31:2e:ea:b2:a5:d0:63:63:e0:fb:b5:
                    81:19:39:6c:50:52:e9:4b:de:e7:a1:9d:11:b6:c2:
                    4b:0a
    Signature Algorithm: sha256WithRSAEncryption
         98:59:cf:80:cc:35:96:f6:13:92:91:3d:3c:7f:13:f7:8c:66:
         a5:9e:76:e2:a2:6d:97:cc:d6:08:29:cf:3c:80:70:44:68:4a:
         b0:2a:87:fd:01:8f:48:fc:cb:38:99:91:c6:a2:1b:81:05:4c:
         2f:58:e9:76:37:44:ee:59:c8:12:83:7d:9e:77:76:df:e4:74:
         be:b9:dc:90:d8:6b:57:f0:d2:2c:3f:5e:c5:59:53:39:cc:dd:
         6d:67:b3:63:5f:91:c1:22:c4:d3:07:78:20:71:a0:86:98:2f:
         97:43:88:5c:68:0d:44:8b:d6:ce:08:5d:73:42:b3:c0:ae:ad:
         a2:5d:82:c3:39:38:8f:ff:43:26:51:07:1f:16:c9:1f:bc:c6:
         2d:0f:73:5d:de:b6:2d:5e:53:06:69:e0:2a:e7:34:96:c1:52:
         62:cd:15:42:56:eb:0c:b1:2a:ce:c0:0d:54:bc:6a:da:4d:0d:
         ee:d7:9a:ef:ae:60:ea:da:81:b9:50:e1:35:33:fb:1c:07:a0:
         9f:a0:7f:54:d9:4e:ed:c0:a2:fd:64:3c:c0:9b:16:8f:d5:a0:
         b3:13:74:c1:af:ea:f1:44:f3:dd:83:aa:ff:fb:c5:7b:86:27:
         ec:a1:f0:0e:8a:b4:9d:aa:d0:0a:96:56:fa:09:ac:af:e4:8f:
         1e:06:74:a1
-----BEGIN CERTIFICATE-----
MIIBrzCBmKADAgECAgEKMA0GCSqGSIb3DQEBCwUAMB8xHTAbBgNVBAMMFFRlc3Qg
Q0EgU3ViYXV0aG9yaXR5MB4XDTcwMDEwMTAwMDAwMFoXDTM0MTAwNjE5MTYyMFow
EjEQMA4GA1UEAwwHZWQyNTUxOTAqMAUGAytlcAMhAM3S5rExLuqypdBjY+D7tYEZ
OWxQUulL3uehnRG2wksKMA0GCSqGSIb3DQEBCwUAA4IBAQCYWc+AzDWW9hOSkT08
fxP3jGalnnbiom2XzNYIKc88gHBEaEqwKof9AY9I/Ms4mZHGohuBBUwvWOl2N0Tu
WcgSg32ed3bf5HS+udyQ2GtX8NIsP17FWVM5zN1tZ7NjX5HBIsTTB3ggcaCGmC+X
Q4hcaA1Ei9bOCF1zQrPArq2iXYLDOTiP/0MmUQcfFskfvMYtD3Nd3rYtXlMGaeAq
5zSWwVJizRVCVusMsSrOwA1UvGraTQ3u15rvrmDq2oG5UOE1M/scB6CfoH9U2U7t
wKL9ZDzAmxaP1aCzE3TBr+rxRPPdg6r/+8V7hifsofAOirSdqtAKllb6Cayv5I8e
BnSh
-----END CERTIFICATE-----
