Certificate Revocation List (CRL):
        Version 2 (0x1)
        Signature Algorithm: sha256WithRSAEncryption
        Issuer: CN=Test CA Subauthority
        Last Update: Jan  1 00:00:00 1970 GMT
        Next Update: Oct  6 19:16:20 2034 GMT
        CRL extensions:
            X509v3 Authority Key Identifier: 
                keyid:EE:24:14:AC:33:8A:83:5D:3C:91:9E:0C:BD:67:EF:2E:42:6B:61:24

            X509v3 CRL Number: 
                0
Revoked Certificates:
    Serial Number: 08
        Revocation Date: Oct  8 19:16:20 2024 GMT
        CRL entry extensions:
            X509v3 CRL Reason Code: 
                Key Compromise
    Signature Algorithm: sha256WithRSAEncryption
         72:f8:66:1e:fa:df:8a:43:eb:ee:6b:6f:5a:34:7c:81:51:59:
         18:cd:d0:1c:96:76:7c:80:e4:6f:9e:d9:07:dc:ff:4b:fd:b7:
         ba:02:61:01:e0:77:34:c4:91:1c:d5:37:d6:f3:e5:e7:f6:d4:
         af:7b:36:0d:53:94:51:36:e3:62:2b:ad:0e:41:17:8b:3e:db:
         8f:ed:8e:fe:02:90:70:b0:5a:24:b6:44:23:b4:f8:39:ff:7e:
         41:09:34:c5:fd:08:51:68:fc:db:72:77:75:60:12:f0:cc:06:
         f6:64:91:10:7e:e7:dc:79:3d:a0:6b:3e:06:41:84:02:a8:56:
         32:1f:ef:24:41:a2:0f:6a:98:23:4e:23:c7:ae:dc:ca:71:6f:
         5b:20:01:25:ad:eb:39:c8:1d:04:84:e5:7d:d8:fa:02:7d:05:
         7f:38:02:b1:ce:62:91:32:59:98:35:56:58:bf:f8:91:6c:35:
         63:6e:20:82:b7:b2:9b:ce:4b:33:05:18:20:29:cb:0e:d4:b5:
         65:89:c8:2f:3c:be:40:fd:4d:c4:44:18:bc:5e:c8:c1:4f:54:
         40:ce:b1:3e:4c:88:c4:40:25:5e:a0:e8:fa:38:23:b3:b0:a1:
         47:c6:a1:9d:66:57:8a:51:cc:47:b5:de:43:e9:b4:5a:7b:89:
         1e:f3:d1:5e
-----BEGIN X509 CRL-----
MIIBvTCBpgIBATANBgkqhkiG9w0BAQsFADAfMR0wGwYDVQQDDBRUZXN0IENBIFN1
YmF1dGhvcml0eRcNNzAwMTAxMDAwMDAwWhcNMzQxMDA2MTkxNjIwWjAiMCACAQgX
DTI0MTAwODE5MTYyMFowDDAKBgNVHRUEAwoBAaAvMC0wHwYDVR0jBBgwFoAU7iQU
rDOKg108kZ4MvWfvLkJrYSQwCgYDVR0UBAMCAQAwDQYJKoZIhvcNAQELBQADggEB
AHL4Zh7634pD6+5rb1o0fIFRWRjN0ByWdnyA5G+e2Qfc/0v9t7oCYQHgdzTEkRzV
N9bz5ef21K97Ng1TlFE242IrrQ5BF4s+24/tjv4CkHCwWiS2RCO0+Dn/fkEJNMX9
CFFo/Ntyd3VgEvDMBvZkkRB+59x5PaBrPgZBhAKoVjIf7yRBog9qmCNOI8eu3Mpx
b1sgASWt6znIHQSE5X3Y+gJ9BX84ArHOYpEyWZg1Vli/+JFsNWNuIIK3spvOSzMF
GCApyw7UtWWJyC88vkD9TcREGLxeyMFPVEDOsT5MiMRAJV6g6Po4I7OwoUfGoZ1m
V4pRzEe13kPptFp7iR7z0V4=
-----END X509 CRL-----
