Certificate:
    Data:
        Version: 3 (0x2)
        Serial Number: 3 (0x3)
        Signature Algorithm: sha256WithRSAEncryption
        Issuer: CN=Test CA
        Validity
            Not Before: Jan  1 00:00:00 1970 GMT
            Not After : Oct  6 19:16:20 2034 GMT
        Subject: CN=Test CA Subauthority
        Subject Public Key Info:
            Public Key Algorithm: rsaEncryption
                RSA Public-Key: (2048 bit)
                Modulus:
                    00:ed:0b:ab:e3:3d:05:12:f4:8c:21:48:5b:73:e9:
                    8e:aa:7c:ce:9e:a9:84:5b:ae:00:49:12:10:b9:20:
                    30:33:ca:70:2f:1f:db:5f:60:9b:40:a6:6f:3e:62:
                    e9:ca:63:91:82:f8:d1:b6:e2:86:d2:e9:9e:c2:72:
                    ab:e2:8a:c7:d8:b8:5e:49:31:3b:dc:4e:c3:2a:8a:
                    de:58:56:3d:39:e8:ba:3d:b7:23:dd:a4:7e:03:68:
                    0a:b6:22:c2:c5:61:e1:9b:a1:71:d1:b4:80:c7:70:
                    bd:f6:21:c5:cd:da:f2:c2:62:8c:91:de:f5:bf:d4:
                    46:85:71:0f:ac:50:8a:f7:7a:65:af:9a:72:8b:ea:
                    3f:ef:bc:55:91:77:12:55:a8:56:cc:98:53:7d:07:
                    7a:4f:45:04:c1:68:85:2d:38:85:f1:81:f8:97:2e:
                    ec:79:83:7f:98:7c:8a:fd:6a:e0:17:69:7d:0a:92:
                    02:e6:a5:c0:7d:d6:55:f2:56:ed:f4:f6:87:99:c7:
                    d5:9f:bb:15:97:f3:06:d5:aa:8c:27:fc:62:7f:a1:
                    94:9b:14:72:a9:56:9f:ab:5e:92:7f:a5:be:29:43:
                    eb:ab:9d:db:cb:c4:82:c8:2c:e7:99:61:42:81:05:
                    2a:4b:99:a0:27:8c:4f:44:79:87:67:58:aa:57:0d:
                    19:fd
                Exponent: 65537 (0x10001)
        X509v3 extensions:
            X509v3 Basic Constraints: critical
                CA:TRUE
            X509v3 Key Usage: critical
                Certificate Sign, CRL Sign
            X509v3 Subject Key Identifier: 
                EE:24:14:AC:33:8A:83:5D:3C:91:9E:0C:BD:67:EF:2E:42:6B:61:24
            Netscape Comment: 
                Puppet Server Internal Certificate
            X509v3 Authority Key Identifier: 
                keyid:A7:C8:E2:98:D9:6F:71:FC:4D:61:1E:EC:2E:F5:3D:0B:77:E6:C6:BD

    Signature Algorithm: sha256WithRSAEncryption
         3a:e1:c4:29:04:41:54:38:92:ec:01:fb:ea:af:73:3b:bc:76:
         f5:bc:09:2c:3d:61:00:4b:40:6b:71:72:d2:01:af:db:3b:d5:
         ec:68:73:98:91:2e:60:03:14:99:49:ee:05:b6:0c:71:58:8f:
         61:fd:70:e8:1e:3c:01:a4:74:13:fd:3d:7d:03:fc:de:cc:18:
         5f:d0:4d:f7:c6:0c:46:c9:78:07:8c:7a:e3:69:e1:a0:0d:fb:
         9c:1b:8c:68:e7:0f:d3:45:e3:ad:34:ee:eb:cf:c5:be:fe:ba:
         37:78:42:a0:4c:c3:fd:1a:24:ad:f7:5c:51:e1:d7:52:9e:ac:
         d8:83:a9:f7:93:6a:06:a2:8c:5b:8d:f4:4d:32:cd:5d:25:08:
         cc:0c:27:e9:d6:cf:2d:55:fd:cc:80:f7:47:0f:9c:35:59:e4:
         72:4d:c3:b7:3a:c6:0f:6f:4d:5f:99:c2:27:7e:42:be:c0:5f:
         0d:67:6c:69:2f:96:31:11:ea:19:4e:43:79:4b:38:ea:2a:41:
         df:89:a6:f2:6b:02:a2:ba:dc:dd:17:9e:5d:9e:62:a0:0f:31:
         ad:35:28:ce:7a:5e:b5:a3:6f:4a:46:fd:d3:e3:03:eb:59:8b:
         ef:e7:15:b3:be:04:98:40:d0:e8:cf:5b:fe:92:33:d7:2e:60:
         86:36:16:aa
-----BEGIN CERTIFICATE-----
MIIDRDCCAiygAwIBAgIBAzANBgkqhkiG9w0BAQsFADASMRAwDgYDVQQDDAdUZXN0
IENBMB4XDTcwMDEwMTAwMDAwMFoXDTM0MTAwNjE5MTYyMFowHzEdMBsGA1UEAwwU
VGVzdCBDQSBTdWJhdXRob3JpdHkwggEiMA0GCSqGSIb3DQEBAQUAA4IBDwAwggEK
AoIBAQDtC6vjPQUS9IwhSFtz6Y6qfM6eqYRbrgBJEhC5IDAzynAvH9tfYJtApm8+
YunKY5GC+NG24obS6Z7CcqviisfYuF5JMTvcTsMqit5YVj056Lo9tyPdpH4DaAq2
IsLFYeGboXHRtIDHcL32IcXN2vLCYoyR3vW/1EaFcQ+sUIr3emWvmnKL6j/vvFWR
dxJVqFbMmFN9B3pPRQTBaIUtOIXxgfiXLux5g3+YfIr9auAXaX0KkgLmpcB91lXy
Vu309oeZx9WfuxWX8wbVqown/GJ/oZSbFHKpVp+rXpJ/pb4pQ+urndvLxILILOeZ
YUKBBSpLmaAnjE9EeYdnWKpXDRn9AgMBAAGjgZcwgZQwDwYDVR0TAQH/BAUwAwEB
/zAOBgNVHQ8BAf8EBAMCAQYwHQYDVR0OBBYEFO4kFKwzioNdPJGeDL1n7y5Ca2Ek
MDEGCWCGSAGG+EIBDQQkFiJQdXBwZXQgU2VydmVyIEludGVybmFsIENlcnRpZmlj
YXRlMB8GA1UdIwQYMBaAFKfI4pjZb3H8TWEe7C71PQt35sa9MA0GCSqGSIb3DQEB
CwUAA4IBAQA64cQpBEFUOJLsAfvqr3M7vHb1vAksPWEAS0BrcXLSAa/bO9XsaHOY
kS5gAxSZSe4FtgxxWI9h/XDoHjwBpHQT/T19A/zezBhf0E33xgxGyXgHjHrjaeGg
DfucG4xo5w/TReOtNO7rz8W+/ro3eEKgTMP9GiSt91xR4ddSnqzYg6n3k2oGooxb
jfRNMs1dJQjMDCfp1s8tVf3MgPdHD5w1WeRyTcO3OsYPb01fmcInfkK+wF8NZ2xp
L5YxEeoZTkN5SzjqKkHfiabyawKiutzdF55dnmKgDzGtNSjOel61o29KRv3T4wPr
WYvv5xWzvgSYQNDoz1v+kjPXLmCGNhaq
-----END CERTIFICATE-----
