Certificate Revocation List (CRL):
        Version 2 (0x1)
        Signature Algorithm: sha256WithRSAEncryption
        Issuer: CN=Test CA Agent Subauthority
        Last Update: Jan  1 00:00:00 1970 GMT
        Next Update: Oct  6 19:16:20 2034 GMT
        CRL extensions:
            X509v3 Authority Key Identifier: 
                keyid:A2:BD:A9:A0:96:67:1C:F4:36:E4:64:71:AC:A2:10:E1:38:E7:A4:55

            X509v3 CRL Number: 
                0
No Revoked Certificates.
    Signature Algorithm: sha256WithRSAEncryption
         28:64:e4:15:c1:0f:13:e4:1d:b9:a9:83:f8:2a:7d:a4:14:9c:
         3f:0a:3e:92:b2:64:3d:78:00:b2:48:d5:11:fd:cf:83:e0:42:
         29:f6:a1:d2:24:37:e6:77:21:76:e2:1d:98:fc:4c:25:84:26:
         df:47:87:b0:a7:14:f1:49:17:52:48:69:86:02:a4:e9:08:f9:
         b0:2e:64:20:f7:19:c1:39:98:1a:6d:15:f4:cb:20:b4:6c:ee:
         9f:ae:84:42:01:45:3a:d0:d8:36:49:80:c5:02:bc:7e:15:4e:
         86:ad:6f:dc:1a:63:cb:8d:93:be:07:c7:42:2f:83:ce:f2:b7:
         8c:f6:25:db:ee:dd:59:a3:42:93:39:6d:c5:21:9c:d6:44:c2:
         a1:91:29:6e:d1:a0:90:a1:b0:72:e5:f4:4c:be:2e:43:0a:c9:
         87:aa:ce:c4:f0:a3:78:1d:0f:b8:fc:3d:3e:b1:37:12:1f:4b:
         d4:a9:d8:38:eb:c2:b9:d8:8d:4b:96:5e:f2:7e:2c:3b:1a:72:
         ff:49:16:9c:49:bf:09:51:b8:0f:5b:bc:02:9a:d3:a2:9f:1e:
         0b:9d:62:c8:bb:ca:bf:55:11:63:0a:cd:59:83:65:69:e8:0c:
         f4:c4:73:5b:85:4d:81:27:f5:0b:07:04:ba:61:e0:0e:55:80:
         7e:03:f6:62
-----BEGIN X509 CRL-----
MIIBnzCBiAIBATANBgkqhkiG9w0BAQsFADAlMSMwIQYDVQQDDBpUZXN0IENBIEFn
ZW50IFN1YmF1dGhvcml0eRcNNzAwMTAxMDAwMDAwWhcNMzQxMDA2MTkxNjIwWqAv
MC0wHwYDVR0jBBgwFoAUor2poJZnHPQ25GRxrKIQ4TjnpFUwCgYDVR0UBAMCAQAw
DQYJKoZIhvcNAQELBQADggEBAChk5BXBDxPkHbmpg/gqfaQUnD8KPpKyZD14ALJI
1RH9z4PgQin2odIkN+Z3IXbiHZj8TCWEJt9Hh7CnFPFJF1JIaYYCpOkI+bAuZCD3
GcE5mBptFfTLILRs7p+uhEIBRTrQ2DZJgMUCvH4VToatb9waY8uNk74Hx0Ivg87y
t4z2Jdvu3VmjQpM5bcUhnNZEwqGRKW7RoJChsHLl9Ey+LkMKyYeqzsTwo3gdD7j8
PT6xNxIfS9Sp2DjrwrnYjUuWXvJ+LDsacv9JFpxJvwlRuA9bvAKa06KfHgudYsi7
yr9VEWMKzVmDZWnoDPTEc1uFTYEn9QsHBLph4A5VgH4D9mI=
-----END X509 CRL-----
