Certificate:
    Data:
        Version: 3 (0x2)
        Serial Number: 11 (0xb)
        Signature Algorithm: sha256WithRSAEncryption
        Issuer: CN=Test CA
        Validity
            Not Before: Jan  1 00:00:00 1970 GMT
            Not After : Oct  6 19:16:20 2034 GMT
        Subject: CN=Test CA Agent Subauthority
        Subject Public Key Info:
            Public Key Algorithm: rsaEncryption
                RSA Public-Key: (2048 bit)
                Modulus:
                    00:bd:88:3f:d3:75:d7:42:ff:20:8c:9a:dc:45:ca:
                    3f:3a:b5:bc:6b:b7:0c:71:67:d3:3e:ca:f7:e4:b0:
                    33:07:74:0f:e5:37:86:5b:61:ba:af:fa:90:21:b5:
                    24:46:93:f2:aa:18:c2:e6:b9:f4:bf:9f:cc:cc:bf:
                    5d:4e:3e:6d:c4:83:e8:b0:5b:c5:86:c3:8a:f0:65:
                    4a:30:84:0b:41:7c:8a:a9:c2:e2:1f:50:3e:01:b7:
                    05:ac:ab:a0:a7:aa:7a:e3:49:1f:ff:16:f6:da:ac:
                    9f:05:bc:8b:0d:f9:bc:7a:a6:c9:37:91:a2:30:71:
                    16:48:99:75:09:4c:58:0b:1c:f8:83:fe:57:f4:a3:
                    7d:09:fe:3b:82:98:3e:83:e7:ec:35:97:37:6b:fb:
                    be:48:bf:59:c5:5c:e7:62:c0:30:16:1a:34:c8:27:
                    2a:11:ba:34:00:6e:d1:40:d6:56:ba:e3:82:c8:3f:
                    80:76:f9:1a:0a:19:49:b4:e9:4a:30:20:bd:cd:5f:
                    10:f5:f8:73:0f:de:68:b8:aa:a1:1f:23:23:ba:d8:
                    95:51:50:bc:d1:41:79:7c:b2:75:d9:09:8a:48:6b:
                    41:e8:88:bf:cc:2a:08:65:a0:4a:c6:bf:e8:87:03:
                    b0:c3:af:ec:34:8b:31:7b:71:13:5a:9f:52:74:be:
                    96:55
                Exponent: 65537 (0x10001)
        X509v3 extensions:
            X509v3 Basic Constraints: critical
                CA:TRUE
            X509v3 Key Usage: critical
                Certificate Sign, CRL Sign
            X509v3 Subject Key Identifier: 
                A2:BD:A9:A0:96:67:1C:F4:36:E4:64:71:AC:A2:10:E1:38:E7:A4:55
            Netscape Comment: 
                Puppet Server Internal Certificate
            X509v3 Authority Key Identifier: 
                keyid:A7:C8:E2:98:D9:6F:71:FC:4D:61:1E:EC:2E:F5:3D:0B:77:E6:C6:BD

    Signature Algorithm: sha256WithRSAEncryption
         b1:d6:5c:b5:65:42:84:a0:f5:88:9c:37:61:56:d2:b0:34:8e:
         9c:e1:ed:f7:40:33:41:ae:19:04:56:78:48:43:a3:30:e9:f6:
         3c:ff:e8:a3:58:d9:52:f0:74:0e:07:46:6c:d6:72:0d:3e:b0:
         12:53:f6:ec:05:85:34:b6:2a:8e:a7:da:e7:ae:ee:0b:b4:6a:
         9f:4b:12:74:79:9b:47:7d:92:ee:34:b5:07:8d:3e:ef:6e:08:
         1a:a1:3e:fc:66:77:d2:d0:80:bd:dc:1e:51:fe:2d:04:08:20:
         e5:da:c9:d5:ee:85:8b:ca:41:ef:df:f6:e3:f5:4e:60:c1:cb:
         74:bf:0f:2e:4d:0a:33:7b:37:cf:54:89:33:7f:20:cc:9e:2f:
         9f:27:a7:8d:eb:14:cf:d2:98:a3:d2:89:1f:2f:2b:87:d8:ec:
         12:b0:82:21:38:65:7b:55:3a:3e:ab:5f:a1:2f:e7:d6:c9:40:
         3c:04:d0:1e:df:63:9f:03:65:63:ec:fe:92:c1:77:fc:a8:b3:
         3e:56:6f:76:cc:26:d1:71:11:e8:01:4a:09:9e:84:0f:06:f5:
         48:04:8d:5e:87:41:b4:90:bf:e1:28:3d:5e:cc:c8:52:ba:93:
         b1:f9:42:cf:17:b7:56:67:1f:d3:fb:85:1d:d4:8e:39:71:0f:
         73:96:96:05
-----BEGIN CERTIFICATE-----
MIIDSjCCAjKgAwIBAgIBCzANBgkqhkiG9w0BAQsFADASMRAwDgYDVQQDDAdUZXN0
IENBMB4XDTcwMDEwMTAwMDAwMFoXDTM0MTAwNjE5MTYyMFowJTEjMCEGA1UEAwwa
VGVzdCBDQSBBZ2VudCBTdWJhdXRob3JpdHkwggEiMA0GCSqGSIb3DQEBAQUAA4IB
DwAwggEKAoIBAQC9iD/TdddC/yCMmtxFyj86tbxrtwxxZ9M+yvfksDMHdA/lN4Zb
Ybqv+pAhtSRGk/KqGMLmufS/n8zMv11OPm3Eg+iwW8WGw4rwZUowhAtBfIqpwuIf
UD4BtwWsq6CnqnrjSR//FvbarJ8FvIsN+bx6psk3kaIwcRZImXUJTFgLHPiD/lf0
o30J/juCmD6D5+w1lzdr+75Iv1nFXOdiwDAWGjTIJyoRujQAbtFA1la644LIP4B2
+RoKGUm06UowIL3NXxD1+HMP3mi4qqEfIyO62JVRULzRQXl8snXZCYpIa0HoiL/M
KghloErGv+iHA7DDr+w0izF7cRNan1J0vpZVAgMBAAGjgZcwgZQwDwYDVR0TAQH/
BAUwAwEB/zAOBgNVHQ8BAf8EBAMCAQYwHQYDVR0OBBYEFKK9qaCWZxz0NuRkcayi
EOE456RVMDEGCWCGSAGG+EIBDQQkFiJQdXBwZXQgU2VydmVyIEludGVybmFsIENl
cnRpZmljYXRlMB8GA1UdIwQYMBaAFKfI4pjZb3H8TWEe7C71PQt35sa9MA0GCSqG
SIb3DQEBCwUAA4IBAQCx1ly1ZUKEoPWInDdhVtKwNI6c4e33QDNBrhkEVnhIQ6Mw
6fY8/+ijWNlS8HQOB0Zs1nINPrASU/bsBYU0tiqOp9rnru4LtGqfSxJ0eZtHfZLu
NLUHjT7vbggaoT78ZnfS0IC93B5R/i0ECCDl2snV7oWLykHv3/bj9U5gwct0vw8u
TQozezfPVIkzfyDMni+fJ6eN6xTP0pij0okfLyuH2OwSsIIhOGV7VTo+q1+hL+fW
yUA8BNAe32OfA2Vj7P6SwXf8qLM+Vm92zCbRcRHoAUoJnoQPBvVIBI1eh0G0kL/h
KD1ezMhSupOx+ULPF7dWZx/T+4Ud1I45cQ9zlpYF
-----END CERTIFICATE-----
