Certificate:
    Data:
        Version: 3 (0x2)
        Serial Number: 7 (0x7)
        Signature Algorithm: sha256WithRSAEncryption
        Issuer: CN=Test CA Subauthority
        Validity
            Not Before: Jan  1 00:00:00 1970 GMT
            Not After : Oct  6 19:16:20 2034 GMT
        Subject: CN=oid
        Subject Public Key Info:
            Public Key Algorithm: rsaEncryption
                RSA Public-Key: (2048 bit)
                Modulus:
                    00:b1:27:83:b1:23:e0:dd:8f:5e:95:ea:07:bb:3b:
                    5d:3a:a9:44:e5:ad:a1:fb:5a:1c:29:da:f7:da:7a:
                    c6:2c:31:bf:f7:03:96:23:19:62:04:86:0e:62:ae:
                    2a:15:27:97:8c:9f:f5:56:68:db:82:87:e1:8d:e3:
                    07:f4:7c:d2:c3:7d:ec:cb:4e:f3:b7:0c:b4:33:77:
                    cb:ad:bd:0e:f7:84:c1:86:ed:d7:e3:e2:b5:b0:3f:
                    75:a1:c3:b5:f0:d9:cf:ff:a6:07:58:1c:f6:51:2b:
                    78:b6:99:77:5a:a9:ae:f8:be:ec:d0:5b:65:74:b3:
                    e3:95:f1:3d:ab:3c:6f:22:b6:22:6c:13:d3:4f:c9:
                    c7:47:79:d2:31:c9:ec:09:ae:5b:32:a8:81:88:df:
                    f0:93:86:a7:87:8b:17:96:a2:17:70:b5:26:9f:09:
                    9d:64:31:8c:d5:77:4c:0a:f4:5c:66:77:ae:45:02:
                    2c:0b:02:af:c0:67:49:f6:c2:ab:2c:f1:5b:cf:9e:
                    f7:04:04:67:e0:07:c6:d5:38:08:86:86:5d:3f:f8:
                    6a:9a:c6:fd:a1:d9:42:d7:bc:8c:71:a5:e4:a4:40:
                    f0:af:a6:ff:09:83:c0:53:10:a9:d7:dd:9f:62:f6:
                    8c:57:a9:49:01:7f:a1:a2:c3:00:91:13:a4:c3:a3:
                    cd:11
                Exponent: 65537 (0x10001)
        X509v3 extensions:
            1.3.6.1.4.1.34380.1.2.1.1: 
                ..somevalue
    Signature Algorithm: sha256WithRSAEncryption
         b7:d4:12:ad:c7:45:83:af:c5:43:3d:74:14:25:58:8b:21:36:
         ea:35:5c:df:af:15:85:2a:f1:0e:23:58:4a:33:d5:3e:48:32:
         12:0a:88:7c:44:62:ca:36:e5:af:a2:fb:76:22:24:b3:85:e6:
         05:0d:1b:d9:4d:74:8b:5e:30:33:09:33:51:d0:82:a2:15:f3:
         a7:e8:50:27:87:75:27:53:7d:e0:bf:f9:7e:45:3c:ec:ae:05:
         97:ea:c8:9a:a3:0a:8b:b2:75:0d:75:f5:af:f7:b7:fa:38:4a:
         84:ce:f6:35:f4:f9:3f:1e:1d:2b:03:54:64:91:ce:12:2b:8c:
         c3:65:ec:4c:13:96:f7:5d:cc:29:c0:9e:59:b7:96:7d:f5:26:
         0f:0b:2b:10:09:44:0b:68:88:e6:3b:f7:06:5e:3e:cc:69:e1:
         9b:c8:6a:00:72:2e:3b:35:01:cf:0f:80:6a:f4:53:ba:5d:65:
         af:d0:eb:c9:e4:64:27:27:a5:8b:25:ff:3c:7a:56:31:54:36:
         e2:1c:82:8f:d0:35:d8:f4:d3:36:fb:15:c1:97:76:fa:75:49:
         a8:e8:29:0f:97:6a:8b:43:b7:12:df:1a:e9:5e:26:58:1a:3c:
         09:23:99:20:75:06:fc:d8:37:8c:6b:6f:9a:02:e3:34:75:34:
         e0:ff:cb:4d
-----BEGIN CERTIFICATE-----
MIICxzCCAa+gAwIBAgIBBzANBgkqhkiG9w0BAQsFADAfMR0wGwYDVQQDDBRUZXN0
IENBIFN1YmF1dGhvcml0eTAeFw03MDAxMDEwMDAwMDBaFw0zNDEwMDYxOTE2MjBa
MA4xDDAKBgNVBAMMA29pZDCCASIwDQYJKoZIhvcNAQEBBQADggEPADCCAQoCggEB
ALEng7Ej4N2PXpXqB7s7XTqpROWtoftaHCna99p6xiwxv/cDliMZYgSGDmKuKhUn
l4yf9VZo24KH4Y3jB/R80sN97MtO87cMtDN3y629DveEwYbt1+PitbA/daHDtfDZ
z/+mB1gc9lEreLaZd1qprvi+7NBbZXSz45XxPas8byK2ImwT00/Jx0d50jHJ7Amu
WzKogYjf8JOGp4eLF5aiF3C1Jp8JnWQxjNV3TAr0XGZ3rkUCLAsCr8BnSfbCqyzx
W8+e9wQEZ+AHxtU4CIaGXT/4aprG/aHZQte8jHGl5KRA8K+m/wmDwFMQqdfdn2L2
jFepSQF/oaLDAJETpMOjzRECAwEAAaMfMB0wGwYMKwYBBAGCjEwBAgEBBAsMCXNv
bWV2YWx1ZTANBgkqhkiG9w0BAQsFAAOCAQEAt9QSrcdFg6/FQz10FCVYiyE26jVc
368VhSrxDiNYSjPVPkgyEgqIfERiyjblr6L7diIks4XmBQ0b2U10i14wMwkzUdCC
ohXzp+hQJ4d1J1N94L/5fkU87K4Fl+rImqMKi7J1DXX1r/e3+jhKhM72NfT5Px4d
KwNUZJHOEiuMw2XsTBOW913MKcCeWbeWffUmDwsrEAlEC2iI5jv3Bl4+zGnhm8hq
AHIuOzUBzw+AavRTul1lr9DryeRkJyeliyX/PHpWMVQ24hyCj9A12PTTNvsVwZd2
+nVJqOgpD5dqi0O3Et8a6V4mWBo8CSOZIHUG/Ng3jGtvmgLjNHU04P/LTQ==
-----END CERTIFICATE-----
