Certificate:
    Data:
        Version: 3 (0x2)
        Serial Number: 12 (0xc)
        Signature Algorithm: sha256WithRSAEncryption
        Issuer: CN=Test CA Agent Subauthority
        Validity
            Not Before: Jan  1 00:00:00 1970 GMT
            Not After : Oct  6 19:16:20 2034 GMT
        Subject: CN=pluto
        Subject Public Key Info:
            Public Key Algorithm: rsaEncryption
                RSA Public-Key: (2048 bit)
                Modulus:
                    00:ab:0d:6c:8c:e7:87:1b:96:66:6e:85:51:b3:5b:
                    49:7b:72:96:87:97:86:f0:4f:a3:ab:c3:d1:e0:65:
                    fc:49:8b:fa:3d:6d:62:45:bd:45:26:0f:23:1b:f3:
                    fb:60:30:5f:61:fe:19:b3:6a:5d:f3:d5:98:5a:f6:
                    f5:8a:82:a8:d6:c8:fb:fa:64:e4:73:30:a3:7e:62:
                    d9:9b:d7:16:c3:73:4f:52:1a:29:fb:8a:a2:1b:04:
                    a7:b6:b2:84:26:38:55:d0:49:62:36:16:87:e8:a2:
                    78:38:d0:36:c3:0d:13:28:77:d2:f1:c0:cb:3d:ac:
                    e2:87:b8:e2:62:4c:d0:db:27:2a:0a:26:63:8a:33:
                    a9:c0:a3:1f:9d:5e:1c:0a:6e:9c:56:a6:37:d1:69:
                    fa:c0:f1:25:84:8d:5f:0c:d0:57:4c:7d:67:d5:f2:
                    33:25:f7:f0:f9:ab:a6:22:08:09:ec:ff:28:9d:4b:
                    7b:90:9b:cf:9b:67:c1:51:60:63:95:c6:2b:05:88:
                    b0:13:57:f6:18:44:e5:b3:7c:dc:0c:c9:64:d9:ff:
                    1a:1d:3a:cd:5a:1d:88:b0:87:cf:12:1f:03:51:11:
                    97:2c:1d:19:1a:70:0d:e5:5e:a3:7d:15:26:21:04:
                    17:9a:57:2c:72:70:30:ef:bb:08:61:12:52:71:61:
                    93:79
                Exponent: 65537 (0x10001)
    Signature Algorithm: sha256WithRSAEncryption
         09:82:51:cc:d9:20:9f:2f:ef:17:26:77:44:fe:6a:91:4a:54:
         65:af:bb:2c:34:ab:e6:97:82:4a:f5:48:2c:8d:a1:8c:1f:23:
         48:6c:e9:c3:89:01:b9:0e:6d:68:3f:98:f2:fc:34:94:57:a6:
         a4:33:fd:17:68:0b:d2:0b:28:16:11:03:1f:5f:5e:62:e9:d0:
         49:12:61:8e:39:9b:bc:70:06:f0:52:cf:f7:3f:ea:1a:e0:40:
         60:86:95:31:79:72:30:24:13:59:c2:d7:ed:99:c9:b4:3e:b1:
         cd:28:47:38:b5:3d:24:7d:e7:17:08:f6:b2:e7:bc:43:1e:18:
         08:04:f9:c0:c8:b9:02:02:17:0b:52:22:d0:8b:98:4e:79:ad:
         19:89:33:ee:5a:18:70:d2:fb:ae:8f:18:55:90:e7:23:94:8a:
         ba:e0:c7:29:d6:f2:1c:6d:56:4d:ef:ad:7e:90:f4:eb:d1:74:
         85:13:f1:81:4c:3c:c0:18:d0:79:72:ab:81:7a:64:08:ae:8f:
         2b:6d:9a:fe:aa:e5:94:e6:2a:fc:71:e3:1b:3a:90:40:d9:6f:
         62:9c:fe:39:ae:42:80:3a:35:4e:22:b8:99:83:d0:cc:e1:a9:
         18:8f:a0:d7:c9:14:55:f0:4b:00:85:d8:42:e8:a5:b1:4c:72:
         16:87:b8:3f
-----BEGIN CERTIFICATE-----
MIICrjCCAZagAwIBAgIBDDANBgkqhkiG9w0BAQsFADAlMSMwIQYDVQQDDBpUZXN0
IENBIEFnZW50IFN1YmF1dGhvcml0eTAeFw03MDAxMDEwMDAwMDBaFw0zNDEwMDYx
OTE2MjBaMBAxDjAMBgNVBAMMBXBsdXRvMIIBIjANBgkqhkiG9w0BAQEFAAOCAQ8A
MIIBCgKCAQEAqw1sjOeHG5ZmboVRs1tJe3KWh5eG8E+jq8PR4GX8SYv6PW1iRb1F
Jg8jG/P7YDBfYf4Zs2pd89WYWvb1ioKo1sj7+mTkczCjfmLZm9cWw3NPUhop+4qi
GwSntrKEJjhV0EliNhaH6KJ4ONA2ww0TKHfS8cDLPazih7jiYkzQ2ycqCiZjijOp
wKMfnV4cCm6cVqY30Wn6wPElhI1fDNBXTH1n1fIzJffw+aumIggJ7P8onUt7kJvP
m2fBUWBjlcYrBYiwE1f2GETls3zcDMlk2f8aHTrNWh2IsIfPEh8DURGXLB0ZGnAN
5V6jfRUmIQQXmlcscnAw77sIYRJScWGTeQIDAQABMA0GCSqGSIb3DQEBCwUAA4IB
AQAJglHM2SCfL+8XJndE/mqRSlRlr7ssNKvml4JK9UgsjaGMHyNIbOnDiQG5Dm1o
P5jy/DSUV6akM/0XaAvSCygWEQMfX15i6dBJEmGOOZu8cAbwUs/3P+oa4EBghpUx
eXIwJBNZwtftmcm0PrHNKEc4tT0kfecXCPay57xDHhgIBPnAyLkCAhcLUiLQi5hO
ea0ZiTPuWhhw0vuujxhVkOcjlIq64Mcp1vIcbVZN761+kPTr0XSFE/GBTDzAGNB5
cquBemQIro8rbZr+quWU5ir8ceMbOpBA2W9inP45rkKAOjVOIriZg9DM4akYj6DX
yRRV8EsAhdhC6KWxTHIWh7g/
-----END CERTIFICATE-----
