Certificate:
    Data:
        Version: 3 (0x2)
        Serial Number: 5 (0x5)
        Signature Algorithm: sha256WithRSAEncryption
        Issuer: CN=Test CA Subauthority
        Validity
            Not Before: Jan  1 00:00:00 1970 GMT
            Not After : Oct  6 19:16:20 2034 GMT
        Subject: CN=renewed
        Subject Public Key Info:
            Public Key Algorithm: rsaEncryption
                RSA Public-Key: (2048 bit)
                Modulus:
                    00:d8:75:2d:8d:4d:24:cd:9a:19:80:a6:56:46:6d:
                    31:f9:18:ef:bd:56:73:f3:e8:93:6a:7b:e0:c6:81:
                    2b:7d:e9:ce:45:52:b6:a7:62:2f:36:0a:d9:ea:3a:
                    07:15:48:8d:77:3b:09:fb:7d:27:6c:e4:51:53:a7:
                    ec:32:94:1b:90:04:fc:f3:0a:57:1c:f0:76:8a:19:
                    e4:c9:f2:2b:c7:64:2c:7c:82:52:31:92:97:69:e4:
                    ff:1c:28:c3:26:d1:27:8b:14:d6:ea:8e:ad:aa:89:
                    a4:dd:90:44:a2:55:e1:52:b2:a1:8e:d6:aa:ed:a9:
                    51:bb:10:79:a1:65:a7:dd:43:c4:e7:10:a0:59:0a:
                    1b:78:ec:a8:bb:b3:fc:0f:61:4a:1c:d2:44:03:ee:
                    4c:3c:42:17:0a:c4:a9:0a:04:a1:8a:aa:00:28:48:
                    c2:34:1b:48:dc:31:77:55:6d:25:4c:08:d8:8f:e6:
                    f6:65:2a:5c:44:80:34:08:18:11:47:8b:35:ed:95:
                    b3:e2:6f:0b:b9:72:24:c4:a7:9a:7a:f7:ad:15:8a:
                    e5:fa:52:a7:4d:3b:5f:6b:e8:54:be:72:29:59:e5:
                    23:00:96:2f:09:3f:7c:43:cb:9b:61:54:fe:ce:ee:
                    42:a4:a1:80:c3:30:f6:e7:f8:41:e1:17:c4:42:55:
                    18:0f
                Exponent: 65537 (0x10001)
    Signature Algorithm: sha256WithRSAEncryption
         bf:ce:37:06:35:7c:9f:85:54:62:4d:96:c2:88:3c:80:df:63:
         32:14:03:44:6c:49:3d:13:f7:2d:45:2f:a4:dc:2b:29:bf:b1:
         b5:f1:2a:f0:87:89:ff:0b:f1:a9:78:ac:f5:b5:b1:7b:1e:c4:
         0c:bb:7c:be:06:7e:96:c0:81:c8:c9:cc:13:a8:67:7a:59:77:
         15:3a:19:50:93:10:de:dd:e5:03:a3:1e:08:0a:df:55:89:c8:
         5e:e7:0b:d1:ee:66:2d:77:44:d2:c8:90:9c:66:55:25:1e:54:
         ab:a2:93:b0:ba:f7:88:df:d1:40:e2:c7:77:cf:d8:aa:ec:45:
         37:47:c4:a4:e9:56:ca:ae:41:3f:fd:1e:a9:a8:64:e4:fa:0f:
         2f:5c:1c:02:57:1e:a4:fb:09:dd:e7:07:64:ce:66:e6:ae:0e:
         fc:a0:a4:34:b1:9a:f7:35:1d:47:e2:29:62:ef:ba:ee:a8:1d:
         84:da:71:3c:da:14:c0:3f:e7:15:aa:fd:74:ca:67:c5:3d:16:
         db:72:fd:35:6d:e0:28:34:ea:fe:ff:bd:82:97:af:ab:ee:f6:
         05:29:93:c5:05:e5:1c:2e:4c:e9:00:ba:40:36:03:c9:ed:78:
         e1:db:9f:08:77:58:38:3f:9f:e5:ef:ac:d1:54:34:6d:c2:53:
         1c:44:d1:25
-----BEGIN CERTIFICATE-----
MIICqjCCAZKgAwIBAgIBBTANBgkqhkiG9w0BAQsFADAfMR0wGwYDVQQDDBRUZXN0
IENBIFN1YmF1dGhvcml0eTAeFw03MDAxMDEwMDAwMDBaFw0zNDEwMDYxOTE2MjBa
MBIxEDAOBgNVBAMMB3JlbmV3ZWQwggEiMA0GCSqGSIb3DQEBAQUAA4IBDwAwggEK
AoIBAQDYdS2NTSTNmhmAplZGbTH5GO+9VnPz6JNqe+DGgSt96c5FUranYi82Ctnq
OgcVSI13Own7fSds5FFTp+wylBuQBPzzClcc8HaKGeTJ8ivHZCx8glIxkpdp5P8c
KMMm0SeLFNbqjq2qiaTdkESiVeFSsqGO1qrtqVG7EHmhZafdQ8TnEKBZCht47Ki7
s/wPYUoc0kQD7kw8QhcKxKkKBKGKqgAoSMI0G0jcMXdVbSVMCNiP5vZlKlxEgDQI
GBFHizXtlbPibwu5ciTEp5p6960ViuX6UqdNO19r6FS+cilZ5SMAli8JP3xDy5th
VP7O7kKkoYDDMPbn+EHhF8RCVRgPAgMBAAEwDQYJKoZIhvcNAQELBQADggEBAL/O
NwY1fJ+FVGJNlsKIPIDfYzIUA0RsST0T9y1FL6TcKym/sbXxKvCHif8L8al4rPW1
sXsexAy7fL4GfpbAgcjJzBOoZ3pZdxU6GVCTEN7d5QOjHggK31WJyF7nC9HuZi13
RNLIkJxmVSUeVKuik7C694jf0UDix3fP2KrsRTdHxKTpVsquQT/9HqmoZOT6Dy9c
HAJXHqT7Cd3nB2TOZuauDvygpDSxmvc1HUfiKWLvuu6oHYTacTzaFMA/5xWq/XTK
Z8U9Ftty/TVt4Cg06v7/vYKXr6vu9gUpk8UF5RwuTOkAukA2A8nteOHbnwh3WDg/
n+XvrNFUNG3CUxxE0SU=
-----END CERTIFICATE-----
