Certificate Request:
    Data:
        Version: 3 (0x2)
        Subject: CN=pending
        Subject Public Key Info:
            Public Key Algorithm: rsaEncryption
                RSA Public-Key: (2048 bit)
                Modulus:
                    00:a9:25:dd:7e:46:c8:ef:ca:2a:b5:6c:60:8d:e1:
                    3a:0a:66:2a:98:49:2a:b1:cb:12:78:c9:fe:2c:d2:
                    06:33:66:21:91:c2:2e:fe:fe:b1:7d:40:70:e7:49:
                    42:ee:47:82:ca:76:fd:dc:f9:de:ae:60:0e:91:1a:
                    48:ff:2a:70:12:fc:ce:a9:54:e4:da:e6:b1:aa:c3:
                    88:96:57:50:4f:38:ba:54:ad:1d:57:38:ef:2c:1b:
                    7c:c4:08:3e:bc:76:38:52:9c:7f:ff:5b:bd:c4:79:
                    c2:c6:3e:d0:88:82:4c:14:dc:ff:dc:1c:86:a1:22:
                    27:ac:3a:a4:f2:5b:40:a8:d6:dc:14:94:bc:42:b3:
                    31:d0:ed:2c:01:49:c1:6e:ac:cf:ad:56:b1:02:0f:
                    b4:5c:11:ae:2f:a4:05:04:c6:5b:73:10:e0:46:33:
                    7d:1f:36:4a:4b:c0:9f:7f:2b:67:58:ef:dc:11:e7:
                    59:93:86:2d:e4:a0:cf:dc:fd:ef:3a:c4:26:5b:f3:
                    0f:6b:aa:e2:4a:0b:af:73:2a:23:7e:fe:bf:23:0e:
                    71:39:57:5b:05:0a:c1:d3:d8:d0:5c:1f:e5:e0:e7:
                    36:f4:9a:5d:e3:63:95:40:0a:34:76:8e:ea:5b:1e:
                    af:df:83:fc:c0:a7:be:0a:cf:cf:bd:c7:c1:0d:42:
                    5b:79
                Exponent: 65537 (0x10001)
        Attributes:
            a0:00
    Signature Algorithm: sha256WithRSAEncryption
         a4:42:1f:f0:13:a2:36:5a:a6:df:06:51:50:6d:ce:f6:6f:fb:
         f0:5d:ee:c1:21:7d:dd:b0:a9:cb:03:bc:30:55:60:86:58:bc:
         26:6e:c7:32:06:7c:85:d6:47:bd:3a:4e:cb:05:d7:07:c3:d2:
         0d:3a:ef:83:1a:4b:bc:73:23:9e:74:6e:7a:88:2e:e7:b7:f7:
         f8:79:4d:24:5d:50:53:24:26:27:5c:2f:de:9e:eb:38:dd:3c:
         c0:2c:b0:58:26:84:5f:2b:24:f4:55:6f:86:fc:54:fe:0c:49:
         16:be:ea:46:a9:b0:3b:ea:14:58:e9:69:4d:b0:dd:99:1d:b6:
         cb:08:b9:4b:1e:51:0c:20:95:1d:2e:55:e3:df:ee:07:fd:f2:
         b3:b5:ec:2e:f1:8b:c4:f0:26:89:9d:4a:ba:cf:04:04:3c:af:
         69:cb:f6:ac:4b:1b:3f:9b:2a:c0:2d:17:90:9a:da:54:6c:f2:
         3e:76:bc:6a:e6:45:22:08:a8:53:13:81:d9:81:4d:dc:2d:4d:
         73:9a:e0:b9:ab:0a:39:4a:df:55:92:91:91:70:b6:95:d7:15:
         7f:22:14:74:5a:05:20:32:9f:66:02:c6:11:f2:b1:d7:65:5f:
         e7:c1:ee:9c:97:57:56:ec:97:b3:33:76:6f:4e:2c:59:5e:f9:
         26:98:1a:a5
-----BEGIN CERTIFICATE REQUEST-----
MIICVzCCAT8CAQIwEjEQMA4GA1UEAwwHcGVuZGluZzCCASIwDQYJKoZIhvcNAQEB
BQADggEPADCCAQoCggEBAKkl3X5GyO/KKrVsYI3hOgpmKphJKrHLEnjJ/izSBjNm
IZHCLv7+sX1AcOdJQu5Hgsp2/dz53q5gDpEaSP8qcBL8zqlU5NrmsarDiJZXUE84
ulStHVc47ywbfMQIPrx2OFKcf/9bvcR5wsY+0IiCTBTc/9wchqEiJ6w6pPJbQKjW
3BSUvEKzMdDtLAFJwW6sz61WsQIPtFwRri+kBQTGW3MQ4EYzfR82SkvAn38rZ1jv
3BHnWZOGLeSgz9z97zrEJlvzD2uq4koLr3MqI37+vyMOcTlXWwUKwdPY0Fwf5eDn
NvSaXeNjlUAKNHaO6lser9+D/MCnvgrPz73HwQ1CW3kCAwEAAaAAMA0GCSqGSIb3
DQEBCwUAA4IBAQCkQh/wE6I2WqbfBlFQbc72b/vwXe7BIX3dsKnLA7wwVWCGWLwm
bscyBnyF1ke9Ok7LBdcHw9INOu+DGku8cyOedG56iC7nt/f4eU0kXVBTJCYnXC/e
nus43TzALLBYJoRfKyT0VW+G/FT+DEkWvupGqbA76hRY6WlNsN2ZHbbLCLlLHlEM
IJUdLlXj3+4H/fKztewu8YvE8CaJnUq6zwQEPK9py/asSxs/myrALReQmtpUbPI+
drxq5kUiCKhTE4HZgU3cLU1zmuC5qwo5St9VkpGRcLaV1xV/IhR0WgUgMp9mAsYR
8rHXZV/nwe6cl1dW7JezM3ZvTixZXvkmmBql
-----END CERTIFICATE REQUEST-----
