Certificate:
    Data:
        Version: 3 (0x2)
        Serial Number: 8 (0x8)
        Signature Algorithm: sha256WithRSAEncryption
        Issuer: CN=Test CA Subauthority
        Validity
            Not Before: Jan  1 00:00:00 1970 GMT
            Not After : Oct  6 19:16:20 2034 GMT
        Subject: CN=revoked
        Subject Public Key Info:
            Public Key Algorithm: rsaEncryption
                RSA Public-Key: (2048 bit)
                Modulus:
                    00:d7:ad:c7:c2:cf:b2:ce:53:78:24:84:18:78:ab:
                    ec:08:9a:f4:e6:f4:c3:60:54:a0:51:3b:a1:10:d0:
                    02:d1:68:d9:7c:39:0c:27:76:35:05:33:b0:8f:87:
                    98:aa:a1:07:1f:f9:17:06:dd:7e:bf:ab:11:1b:6e:
                    9d:55:84:67:54:49:e1:f9:49:b5:28:dd:57:4e:21:
                    1e:70:e6:a8:f5:5e:8a:85:38:01:5c:9b:e4:a3:c2:
                    03:6e:47:b3:d6:cc:75:2a:1d:c9:32:70:dc:de:c3:
                    7d:86:02:d6:26:85:85:1f:1a:59:d5:7a:d0:93:b7:
                    4b:ee:91:12:13:d2:0e:20:fe:43:d2:d3:14:b5:7d:
                    3f:11:38:63:7e:ff:3d:b0:09:2e:8d:16:da:f7:c6:
                    bf:af:63:17:74:a7:b4:b2:70:67:32:e0:0a:70:06:
                    e5:fa:d8:c7:1f:8e:f3:7a:ec:36:a8:8c:d9:29:aa:
                    40:d0:96:9d:93:b4:15:af:13:06:64:26:8c:ae:44:
                    ed:37:9a:83:44:6c:68:43:f8:bf:89:33:b1:07:1e:
                    15:21:1d:62:30:4e:b3:84:e4:41:4c:c2:26:a1:84:
                    5d:97:76:ca:62:21:73:52:39:b2:81:01:c2:81:b8:
                    ec:d0:9b:9b:e6:4a:b9:8d:80:53:fd:87:89:ed:72:
                    97:9d
                Exponent: 65537 (0x10001)
    Signature Algorithm: sha256WithRSAEncryption
         a3:95:46:17:9d:bc:6f:76:af:36:18:8d:9b:8a:85:16:55:50:
         b8:8b:5e:0a:ec:3a:e0:41:d5:15:0c:4e:e9:8a:ef:53:44:1a:
         da:ef:95:69:72:65:7f:0b:30:dd:46:24:ec:35:cc:a3:7f:d2:
         5c:a2:49:b7:84:99:3c:33:44:2c:b1:c3:a0:11:f9:fd:de:26:
         3d:27:b8:c6:b0:d8:62:72:50:a6:27:1b:e9:33:64:1b:a2:ba:
         a2:51:bc:21:0e:18:3f:34:74:87:44:17:9c:1c:ec:fd:cf:40:
         ff:26:b4:f6:6c:14:a9:97:d8:a7:e1:57:eb:ad:12:a9:ad:70:
         86:d3:9e:a8:9e:43:50:f8:82:aa:f3:fd:99:54:7a:2b:c2:09:
         b7:77:c4:00:99:86:a8:95:10:bf:2a:fe:0f:23:ba:3e:ab:97:
         07:3d:b8:50:19:8f:be:a7:6d:f5:1b:52:d4:58:a2:0a:ec:ea:
         14:d3:ad:be:28:2e:13:40:e4:c8:bb:78:84:c3:f1:9e:cd:86:
         58:85:14:2b:27:04:50:88:d5:36:68:b1:1a:90:b5:18:4e:f3:
         b3:a2:7a:75:b6:10:16:b4:05:81:68:6c:f2:a6:7d:2b:7e:af:
         bd:2f:3c:ef:82:db:2a:af:8b:7b:58:48:3c:d1:8a:b9:73:c6:
         08:fb:92:17
-----BEGIN CERTIFICATE-----
MIICqjCCAZKgAwIBAgIBCDANBgkqhkiG9w0BAQsFADAfMR0wGwYDVQQDDBRUZXN0
IENBIFN1YmF1dGhvcml0eTAeFw03MDAxMDEwMDAwMDBaFw0zNDEwMDYxOTE2MjBa
MBIxEDAOBgNVBAMMB3Jldm9rZWQwggEiMA0GCSqGSIb3DQEBAQUAA4IBDwAwggEK
AoIBAQDXrcfCz7LOU3gkhBh4q+wImvTm9MNgVKBRO6EQ0ALRaNl8OQwndjUFM7CP
h5iqoQcf+RcG3X6/qxEbbp1VhGdUSeH5SbUo3VdOIR5w5qj1XoqFOAFcm+SjwgNu
R7PWzHUqHckycNzew32GAtYmhYUfGlnVetCTt0vukRIT0g4g/kPS0xS1fT8ROGN+
/z2wCS6NFtr3xr+vYxd0p7SycGcy4ApwBuX62McfjvN67DaojNkpqkDQlp2TtBWv
EwZkJoyuRO03moNEbGhD+L+JM7EHHhUhHWIwTrOE5EFMwiahhF2XdspiIXNSObKB
AcKBuOzQm5vmSrmNgFP9h4ntcpedAgMBAAEwDQYJKoZIhvcNAQELBQADggEBAKOV
RhedvG92rzYYjZuKhRZVULiLXgrsOuBB1RUMTumK71NEGtrvlWlyZX8LMN1GJOw1
zKN/0lyiSbeEmTwzRCyxw6AR+f3eJj0nuMaw2GJyUKYnG+kzZBuiuqJRvCEOGD80
dIdEF5wc7P3PQP8mtPZsFKmX2KfhV+utEqmtcIbTnqieQ1D4gqrz/ZlUeivCCbd3
xACZhqiVEL8q/g8juj6rlwc9uFAZj76nbfUbUtRYogrs6hTTrb4oLhNA5Mi7eITD
8Z7NhliFFCsnBFCI1TZosRqQtRhO87OienW2EBa0BYFobPKmfSt+r70vPO+C2yqv
i3tYSDzRirlzxgj7khc=
-----END CERTIFICATE-----
