Certificate:
    Data:
        Version: 3 (0x2)
        Serial Number: 4 (0x4)
        Signature Algorithm: sha256WithRSAEncryption
        Issuer: CN=Test CA Subauthority
        Validity
            Not Before: Jan  1 00:00:00 1970 GMT
            Not After : Oct  6 19:16:20 2034 GMT
        Subject: CN=signed
        Subject Public Key Info:
            Public Key Algorithm: rsaEncryption
                RSA Public-Key: (2048 bit)
                Modulus:
                    00:d8:75:2d:8d:4d:24:cd:9a:19:80:a6:56:46:6d:
                    31:f9:18:ef:bd:56:73:f3:e8:93:6a:7b:e0:c6:81:
                    2b:7d:e9:ce:45:52:b6:a7:62:2f:36:0a:d9:ea:3a:
                    07:15:48:8d:77:3b:09:fb:7d:27:6c:e4:51:53:a7:
                    ec:32:94:1b:90:04:fc:f3:0a:57:1c:f0:76:8a:19:
                    e4:c9:f2:2b:c7:64:2c:7c:82:52:31:92:97:69:e4:
                    ff:1c:28:c3:26:d1:27:8b:14:d6:ea:8e:ad:aa:89:
                    a4:dd:90:44:a2:55:e1:52:b2:a1:8e:d6:aa:ed:a9:
                    51:bb:10:79:a1:65:a7:dd:43:c4:e7:10:a0:59:0a:
                    1b:78:ec:a8:bb:b3:fc:0f:61:4a:1c:d2:44:03:ee:
                    4c:3c:42:17:0a:c4:a9:0a:04:a1:8a:aa:00:28:48:
                    c2:34:1b:48:dc:31:77:55:6d:25:4c:08:d8:8f:e6:
                    f6:65:2a:5c:44:80:34:08:18:11:47:8b:35:ed:95:
                    b3:e2:6f:0b:b9:72:24:c4:a7:9a:7a:f7:ad:15:8a:
                    e5:fa:52:a7:4d:3b:5f:6b:e8:54:be:72:29:59:e5:
                    23:00:96:2f:09:3f:7c:43:cb:9b:61:54:fe:ce:ee:
                    42:a4:a1:80:c3:30:f6:e7:f8:41:e1:17:c4:42:55:
                    18:0f
                Exponent: 65537 (0x10001)
    Signature Algorithm: sha256WithRSAEncryption
         33:d2:4f:c1:9b:63:65:56:e0:f4:e8:d7:0c:6c:7f:16:f8:df:
         1b:d0:c2:12:e7:9d:52:94:e2:ad:38:fc:9d:13:84:6d:5c:59:
         4d:2d:c3:0c:7a:45:46:2d:4b:de:12:cd:4b:0f:d0:13:dd:29:
         46:9c:fa:c0:18:c8:1d:d1:2b:5f:54:6b:fa:26:ca:53:67:20:
         90:ff:95:30:5c:f6:21:98:a1:78:d4:e5:78:cb:4e:19:a8:1e:
         92:2f:6c:8d:93:79:78:12:f3:39:67:ba:73:2e:44:db:f4:ba:
         40:ec:08:fd:36:b6:f1:88:94:4f:a8:57:fc:ed:aa:39:61:0d:
         11:b6:0e:7e:22:02:6e:4d:9d:53:09:19:5c:11:7c:f9:63:0e:
         b0:77:96:5b:72:ae:11:ee:72:f1:a6:80:cb:97:dc:23:1a:c8:
         7a:b8:8a:c8:8a:02:c3:da:ff:b8:ed:e0:66:df:25:53:b0:09:
         d7:ee:1b:e7:7a:da:0a:3c:29:62:9e:a7:42:b2:01:14:0b:72:
         f7:a6:ea:7b:f3:14:4e:bf:68:ad:65:3d:97:96:82:8c:b1:3b:
         32:84:13:ef:54:8c:c6:59:fb:fc:ec:91:62:55:cb:50:ed:15:
         9a:4d:ed:64:6d:54:82:d1:d8:65:d6:08:63:bc:29:d9:b8:f8:
         38:9f:cb:2c
-----BEGIN CERTIFICATE-----
MIICqTCCAZGgAwIBAgIBBDANBgkqhkiG9w0BAQsFADAfMR0wGwYDVQQDDBRUZXN0
IENBIFN1YmF1dGhvcml0eTAeFw03MDAxMDEwMDAwMDBaFw0zNDEwMDYxOTE2MjBa
MBExDzANBgNVBAMMBnNpZ25lZDCCASIwDQYJKoZIhvcNAQEBBQADggEPADCCAQoC
ggEBANh1LY1NJM2aGYCmVkZtMfkY771Wc/Pok2p74MaBK33pzkVStqdiLzYK2eo6
BxVIjXc7Cft9J2zkUVOn7DKUG5AE/PMKVxzwdooZ5MnyK8dkLHyCUjGSl2nk/xwo
wybRJ4sU1uqOraqJpN2QRKJV4VKyoY7Wqu2pUbsQeaFlp91DxOcQoFkKG3jsqLuz
/A9hShzSRAPuTDxCFwrEqQoEoYqqAChIwjQbSNwxd1VtJUwI2I/m9mUqXESANAgY
EUeLNe2Vs+JvC7lyJMSnmnr3rRWK5fpSp007X2voVL5yKVnlIwCWLwk/fEPLm2FU
/s7uQqShgMMw9uf4QeEXxEJVGA8CAwEAATANBgkqhkiG9w0BAQsFAAOCAQEAM9JP
wZtjZVbg9OjXDGx/FvjfG9DCEuedUpTirTj8nROEbVxZTS3DDHpFRi1L3hLNSw/Q
E90pRpz6wBjIHdErX1Rr+ibKU2cgkP+VMFz2IZiheNTleMtOGageki9sjZN5eBLz
OWe6cy5E2/S6QOwI/Ta28YiUT6hX/O2qOWENEbYOfiICbk2dUwkZXBF8+WMOsHeW
W3KuEe5y8aaAy5fcIxrIeriKyIoCw9r/uO3gZt8lU7AJ1+4b53raCjwpYp6nQrIB
FAty96bqe/MUTr9orWU9l5aCjLE7MoQT71SMxln7/OyRYlXLUO0Vmk3tZG1UgtHY
ZdYIY7wp2bj4OJ/LLA==
-----END CERTIFICATE-----
