Certificate:
    Data:
        Version: 3 (0x2)
        Serial Number: 14 (0xe)
        Signature Algorithm: sha256WithRSAEncryption
        Issuer: CN=Test CA Subauthority
        Validity
            Not Before: Jan  1 00:00:00 1970 GMT
            Not After : Oct  6 19:16:20 2034 GMT
        Subject: CN=signed
        Subject Public Key Info:
            Public Key Algorithm: rsaEncryption
                RSA Public-Key: (2048 bit)
                Modulus:
                    00:e6:2a:c3:b3:f9:98:41:a0:27:0d:aa:f2:1b:90:
                    9c:53:a3:a8:9f:ff:11:1c:d1:3b:89:fd:18:45:0e:
                    1d:36:2c:39:cb:c3:a4:4b:86:0b:8f:06:61:3f:a8:
                    00:5a:b1:bb:53:88:f1:e9:01:3e:5c:0e:ac:12:41:
                    a8:24:14:0e:f1:df:d8:37:f1:9d:d9:41:97:e1:1c:
                    9d:10:36:f3:52:2f:72:42:1e:e3:27:07:a8:db:41:
                    4b:d7:72:fc:c1:02:fa:3b:bb:89:ce:0a:5e:f6:38:
                    fa:57:b3:d3:d6:54:08:7a:e9:09:e5:6d:91:72:6c:
                    09:b2:11:53:63:50:a7:5c:b6:ab:9b:18:f0:e3:4e:
                    6d:10:46:71:a9:6e:87:42:da:a9:55:ab:01:fd:97:
                    28:3a:30:25:36:b4:d8:67:29:a3:e3:dc:da:70:96:
                    dd:18:f1:d3:b4:d0:4c:3d:1b:99:3a:cd:5e:68:0a:
                    67:aa:de:1c:2e:a3:67:24:f2:8d:07:6b:64:58:c0:
                    48:7f:b7:61:2c:4f:fd:ba:2d:f9:c0:1c:75:ae:e9:
                    14:45:93:3a:4c:08:39:00:17:91:34:62:bc:f7:50:
                    17:0f:3d:1c:a5:e4:d9:0e:ae:9a:ec:92:cc:05:78:
                    3b:cf:3d:bd:46:35:26:41:23:d6:43:88:41:b8:42:
                    b7:53
                Exponent: 65537 (0x10001)
    Signature Algorithm: sha256WithRSAEncryption
         85:de:99:9e:24:2c:74:96:af:62:bb:c1:16:21:be:71:c7:32:
         06:38:a7:4c:dc:25:14:71:8a:14:9a:95:3b:f9:c2:8e:b4:08:
         ab:50:7a:20:b4:37:1a:05:95:33:8b:66:1a:0f:ea:89:b8:01:
         79:9b:ab:e5:a8:8a:d7:ab:9d:92:0c:92:fb:fd:05:2c:fd:ae:
         dc:f3:fb:74:c3:07:eb:35:e5:6c:c8:38:2b:31:f8:6c:2b:08:
         ec:b4:04:b8:09:12:05:10:e6:ad:01:39:7e:b6:58:44:f9:a3:
         a9:04:64:89:46:a6:07:c3:9d:03:9b:76:c9:c4:ca:63:2e:40:
         b7:b4:79:84:1a:63:89:b3:82:b9:b6:21:0c:53:18:90:a3:cc:
         a7:08:a1:e2:30:74:c7:aa:fb:cb:a2:69:e7:54:9d:c2:5b:09:
         e3:89:10:81:fe:f5:64:2c:30:88:d4:ac:1f:39:47:c4:bd:d4:
         a1:86:78:7c:d3:36:63:c3:ac:b9:da:66:02:36:96:97:ee:10:
         9a:6f:8c:7e:3e:79:d0:23:b8:05:91:36:b5:16:dd:40:82:d0:
         a5:78:e3:f5:92:78:f7:2a:7d:57:b7:71:f2:be:27:77:63:15:
         ce:60:8f:70:94:54:9c:57:d9:8a:32:e7:dd:ed:56:02:72:9b:
         77:fb:e5:8c
-----BEGIN CERTIFICATE-----
MIICqTCCAZGgAwIBAgIBDjANBgkqhkiG9w0BAQsFADAfMR0wGwYDVQQDDBRUZXN0
IENBIFN1YmF1dGhvcml0eTAeFw03MDAxMDEwMDAwMDBaFw0zNDEwMDYxOTE2MjBa
MBExDzANBgNVBAMMBnNpZ25lZDCCASIwDQYJKoZIhvcNAQEBBQADggEPADCCAQoC
ggEBAOYqw7P5mEGgJw2q8huQnFOjqJ//ERzRO4n9GEUOHTYsOcvDpEuGC48GYT+o
AFqxu1OI8ekBPlwOrBJBqCQUDvHf2DfxndlBl+EcnRA281IvckIe4ycHqNtBS9dy
/MEC+ju7ic4KXvY4+lez09ZUCHrpCeVtkXJsCbIRU2NQp1y2q5sY8ONObRBGcalu
h0LaqVWrAf2XKDowJTa02Gcpo+Pc2nCW3Rjx07TQTD0bmTrNXmgKZ6reHC6jZyTy
jQdrZFjASH+3YSxP/bot+cAcda7pFEWTOkwIOQAXkTRivPdQFw89HKXk2Q6umuyS
zAV4O889vUY1JkEj1kOIQbhCt1MCAwEAATANBgkqhkiG9w0BAQsFAAOCAQEAhd6Z
niQsdJavYrvBFiG+cccyBjinTNwlFHGKFJqVO/nCjrQIq1B6ILQ3GgWVM4tmGg/q
ibgBeZur5aiK16udkgyS+/0FLP2u3PP7dMMH6zXlbMg4KzH4bCsI7LQEuAkSBRDm
rQE5frZYRPmjqQRkiUamB8OdA5t2ycTKYy5At7R5hBpjibOCubYhDFMYkKPMpwih
4jB0x6r7y6Jp51SdwlsJ44kQgf71ZCwwiNSsHzlHxL3UoYZ4fNM2Y8OsudpmAjaW
l+4Qmm+Mfj550CO4BZE2tRbdQILQpXjj9ZJ49yp9V7dx8r4nd2MVzmCPcJRUnFfZ
ijLn3e1WAnKbd/vljA==
-----END CERTIFICATE-----
