Certificate Request:
    Data:
        Version: 3 (0x2)
        Subject: CN=signed
        Subject Public Key Info:
            Public Key Algorithm: rsaEncryption
                RSA Public-Key: (2048 bit)
                Modulus:
                    00:b1:25:61:2e:9a:0f:af:87:98:2f:f9:44:1d:4d:
                    e0:b1:51:65:5d:55:a4:d2:43:26:c0:d0:8f:02:84:
                    f6:42:00:b3:90:80:1f:94:65:97:d1:d0:05:c7:fd:
                    15:1d:0a:cb:7b:f6:9b:6e:69:b7:f9:5c:1f:0e:4a:
                    64:e4:a6:76:a3:fb:4f:c3:0b:9f:04:3d:93:65:6b:
                    80:2c:70:69:4c:ab:d9:87:e1:9e:1a:6d:07:b7:6b:
                    2a:c6:28:ce:d9:90:23:db:ce:76:d5:dc:ec:2b:ab:
                    8f:78:96:ce:c7:c6:45:bf:bf:34:b7:3d:3f:87:32:
                    1e:41:54:c9:83:cb:0f:b0:9d:50:97:4a:4b:aa:34:
                    49:fc:00:e7:26:8f:d2:11:3d:bc:db:7b:b7:8f:b5:
                    79:0c:10:d4:f0:7f:bc:66:c7:01:09:05:6f:dc:6a:
                    66:35:da:57:dd:e9:3b:8c:ce:e2:02:1d:a1:f6:19:
                    eb:e6:3d:1c:51:13:c8:a2:6c:d5:4a:14:38:70:ba:
                    11:e1:b3:39:52:a2:9c:49:c1:25:de:98:83:a1:31:
                    b9:c1:ad:b5:ad:a5:39:74:9a:39:dd:96:52:63:e9:
                    6c:73:1e:8f:c7:49:6a:53:a8:6e:14:5d:86:fd:41:
                    1c:b8:85:62:ba:36:00:e0:c5:ba:7c:85:db:fd:1b:
                    ca:2b
                Exponent: 65537 (0x10001)
        Attributes:
            a0:00
    Signature Algorithm: sha256WithRSAEncryption
         7f:c8:16:67:d0:3a:4e:e5:8a:c1:96:04:8d:2e:2f:a0:28:4b:
         25:39:fc:a9:57:37:f7:4e:05:b1:bc:af:a1:f4:fc:b5:c6:00:
         38:09:d5:8f:fe:95:93:4a:c9:1e:57:71:01:49:19:3a:52:e2:
         58:57:24:6f:0c:ae:bf:5d:02:8d:95:49:b2:dd:0b:0a:7a:d7:
         50:41:fc:4c:df:89:03:46:22:5f:d7:ad:97:65:78:14:2d:5d:
         8f:9b:6f:54:83:e5:6f:a3:44:52:c7:b4:e9:f4:eb:c6:ee:a8:
         a2:ca:fe:c1:fe:63:9b:36:8f:04:34:1e:3f:eb:f9:fb:04:af:
         eb:ce:5c:e9:64:31:1b:f9:bc:bc:86:16:54:73:d1:95:df:bf:
         57:0c:fd:13:92:99:35:42:79:84:ee:17:1d:4d:f1:b8:c9:21:
         fa:85:09:6b:02:7b:c2:3c:9e:b0:c2:94:33:51:79:64:f9:67:
         1c:95:d5:bb:3c:af:be:46:85:d2:f8:22:a8:bb:de:0b:b2:c7:
         49:63:89:7b:8b:f3:d8:23:29:c5:80:88:ea:87:23:6c:e7:c3:
         0c:b7:88:2a:a2:20:17:f4:5e:ee:fd:cc:0d:be:d2:e1:04:65:
         14:90:48:59:78:b2:12:b2:e8:8e:c1:72:71:c8:46:c8:b0:aa:
         20:b9:96:83
-----BEGIN CERTIFICATE REQUEST-----
MIICVjCCAT4CAQIwETEPMA0GA1UEAwwGc2lnbmVkMIIBIjANBgkqhkiG9w0BAQEF
AAOCAQ8AMIIBCgKCAQEAsSVhLpoPr4eYL/lEHU3gsVFlXVWk0kMmwNCPAoT2QgCz
kIAflGWX0dAFx/0VHQrLe/abbmm3+VwfDkpk5KZ2o/tPwwufBD2TZWuALHBpTKvZ
h+GeGm0Ht2sqxijO2ZAj28521dzsK6uPeJbOx8ZFv780tz0/hzIeQVTJg8sPsJ1Q
l0pLqjRJ/ADnJo/SET2823u3j7V5DBDU8H+8ZscBCQVv3GpmNdpX3ek7jM7iAh2h
9hnr5j0cURPIomzVShQ4cLoR4bM5UqKcScEl3piDoTG5wa21raU5dJo53ZZSY+ls
cx6Px0lqU6huFF2G/UEcuIViujYA4MW6fIXb/RvKKwIDAQABoAAwDQYJKoZIhvcN
AQELBQADggEBAH/IFmfQOk7lisGWBI0uL6AoSyU5/KlXN/dOBbG8r6H0/LXGADgJ
1Y/+lZNKyR5XcQFJGTpS4lhXJG8Mrr9dAo2VSbLdCwp611BB/EzfiQNGIl/XrZdl
eBQtXY+bb1SD5W+jRFLHtOn068buqKLK/sH+Y5s2jwQ0Hj/r+fsEr+vOXOlkMRv5
vLyGFlRz0ZXfv1cM/ROSmTVCeYTuFx1N8bjJIfqFCWsCe8I8nrDClDNReWT5ZxyV
1bs8r75GhdL4Iqi73guyx0ljiXuL89gjKcWAiOqHI2znwwy3iCqiIBf0Xu79zA2+
0uEEZRSQSFl4shKy6I7BcnHIRsiwqiC5loM=
-----END CERTIFICATE REQUEST-----
