Certificate:
    Data:
        Version: 3 (0x2)
        Serial Number: 0 (0x0)
        Signature Algorithm: sha256WithRSAEncryption
        Issuer: CN=Unknown CA
        Validity
            Not Before: Jan  1 00:00:00 1970 GMT
            Not After : Oct  6 19:16:20 2034 GMT
        Subject: CN=Unknown CA
        Subject Public Key Info:
            Public Key Algorithm: rsaEncryption
                RSA Public-Key: (2048 bit)
                Modulus:
                    00:e8:05:ce:3e:e7:4b:fa:4d:4f:57:ab:11:50:a1:
                    7d:b0:78:80:bc:4b:4d:c3:68:17:11:36:60:05:a4:
                    00:a7:77:93:18:47:8e:2a:bc:3a:b5:f8:6a:5c:76:
                    c5:1d:f1:ba:60:de:66:14:d3:10:ba:54:ce:1a:8f:
                    b2:95:d6:85:2c:ca:8c:1d:16:99:26:f5:46:59:cc:
                    5c:d6:5e:ee:9a:9d:d4:c6:d5:b5:29:1e:ed:d8:cf:
                    52:64:79:a1:b7:26:c7:04:8a:08:4e:5d:96:cf:5e:
                    e3:35:fc:f5:21:a5:4f:36:73:34:72:65:35:32:d6:
                    8a:c0:a1:3f:6d:4f:63:85:7a:1f:e1:ad:49:62:c5:
                    34:0b:04:d5:4b:52:ca:9b:e0:70:0f:a8:fd:82:ea:
                    34:2f:56:55:8e:a3:4a:9f:7f:5c:19:4f:2e:4c:f6:
                    ad:ab:ba:87:a6:fe:d2:db:28:38:e4:cd:9a:64:20:
                    26:8a:b9:69:a8:63:62:ae:87:32:11:bf:2c:32:5b:
                    b4:22:76:18:e6:e9:95:fa:f6:87:fe:03:11:59:90:
                    72:08:c6:29:66:8b:25:d3:df:e9:8d:ab:7b:66:cf:
                    a0:22:78:0e:a1:ec:97:9a:2b:b8:60:85:57:f1:09:
                    28:dd:bc:d3:ad:3f:ef:71:cd:7d:0b:1c:ec:a4:16:
                    5f:97
                Exponent: 65537 (0x10001)
        X509v3 extensions:
            X509v3 Basic Constraints: critical
                CA:TRUE
            X509v3 Key Usage: critical
                Certificate Sign, CRL Sign
            X509v3 Subject Key Identifier: 
                FD:E3:43:37:48:67:C1:3E:DF:F2:42:B6:71:F6:50:C0:CC:83:C8:02
            Netscape Comment: 
                Puppet Server Internal Certificate
            X509v3 Authority Key Identifier: 
                keyid:FD:E3:43:37:48:67:C1:3E:DF:F2:42:B6:71:F6:50:C0:CC:83:C8:02

    Signature Algorithm: sha256WithRSAEncryption
         84:21:c8:04:fa:24:3c:cf:9e:11:47:76:ca:ee:59:a1:00:b0:
         79:e3:d6:7a:2a:38:c5:5e:18:99:c0:94:91:4d:20:e4:4d:f9:
         06:95:d6:af:d2:37:4a:9c:5e:d8:50:2b:17:c6:b2:a7:8a:6b:
         31:83:81:14:c6:b6:64:02:31:e9:5e:81:ac:4f:09:86:af:74:
         28:09:cb:84:b1:4f:ed:37:cd:d2:57:bd:ce:29:39:5c:b9:99:
         f3:4a:10:b1:d3:58:28:9c:58:a6:1c:e4:ae:25:d0:30:14:56:
         3d:39:a5:7f:27:1a:ff:68:94:67:5c:3d:14:15:b0:d0:d6:4a:
         e2:f2:e4:44:b0:0d:11:23:8f:c7:7b:a7:09:f8:1a:52:77:ea:
         e7:bb:89:4c:da:56:14:71:97:d5:40:f7:73:1c:f9:10:b9:14:
         a7:09:6a:f2:2c:64:5d:01:2b:c8:44:96:64:1d:41:ea:2a:53:
         e6:e8:89:bf:15:02:df:be:14:87:fc:9b:59:bb:a6:86:f6:97:
         3b:d2:72:dc:5b:31:09:a1:48:45:dd:f4:41:85:8e:c6:54:3d:
         86:88:ec:ea:dd:26:79:2c:96:95:7f:44:5b:7c:a0:07:b9:f4:
         e0:a4:a2:e5:f1:e1:e4:44:ea:71:2d:d6:10:23:58:f7:fa:54:
         d2:4c:12:fb
-----BEGIN CERTIFICATE-----
MIIDPTCCAiWgAwIBAgIBADANBgkqhkiG9w0BAQsFADAVMRMwEQYDVQQDDApVbmtu
b3duIENBMB4XDTcwMDEwMTAwMDAwMFoXDTM0MTAwNjE5MTYyMFowFTETMBEGA1UE
AwwKVW5rbm93biBDQTCCASIwDQYJKoZIhvcNAQEBBQADggEPADCCAQoCggEBAOgF
zj7nS/pNT1erEVChfbB4gLxLTcNoFxE2YAWkAKd3kxhHjiq8OrX4alx2xR3xumDe
ZhTTELpUzhqPspXWhSzKjB0WmSb1RlnMXNZe7pqd1MbVtSke7djPUmR5obcmxwSK
CE5dls9e4zX89SGlTzZzNHJlNTLWisChP21PY4V6H+GtSWLFNAsE1UtSypvgcA+o
/YLqNC9WVY6jSp9/XBlPLkz2rau6h6b+0tsoOOTNmmQgJoq5aahjYq6HMhG/LDJb
tCJ2GObplfr2h/4DEVmQcgjGKWaLJdPf6Y2re2bPoCJ4DqHsl5oruGCFV/EJKN28
060/73HNfQsc7KQWX5cCAwEAAaOBlzCBlDAPBgNVHRMBAf8EBTADAQH/MA4GA1Ud
DwEB/wQEAwIBBjAdBgNVHQ4EFgQU/eNDN0hnwT7f8kK2cfZQwMyDyAIwMQYJYIZI
AYb4QgENBCQWIlB1cHBldCBTZXJ2ZXIgSW50ZXJuYWwgQ2VydGlmaWNhdGUwHwYD
VR0jBBgwFoAU/eNDN0hnwT7f8kK2cfZQwMyDyAIwDQYJKoZIhvcNAQELBQADggEB
AIQhyAT6JDzPnhFHdsruWaEAsHnj1noqOMVeGJnAlJFNIORN+QaV1q/SN0qcXthQ
KxfGsqeKazGDgRTGtmQCMelegaxPCYavdCgJy4SxT+03zdJXvc4pOVy5mfNKELHT
WCicWKYc5K4l0DAUVj05pX8nGv9olGdcPRQVsNDWSuLy5ESwDREjj8d7pwn4GlJ3
6ue7iUzaVhRxl9VA93Mc+RC5FKcJavIsZF0BK8hElmQdQeoqU+boib8VAt++FIf8
m1m7pob2lzvSctxbMQmhSEXd9EGFjsZUPYaI7OrdJnkslpV/RFt8oAe59OCkouXx
4eRE6nEt1hAjWPf6VNJMEvs=
-----END CERTIFICATE-----
