Certificate:
    Data:
        Version: 3 (0x2)
        Serial Number: 1 (0x1)
        Signature Algorithm: sha256WithRSAEncryption
        Issuer: CN=Unknown CA
        Validity
            Not Before: Jan  1 00:00:00 1970 GMT
            Not After : Oct  6 19:16:20 2034 GMT
        Subject: CN=127.0.0.1
        Subject Public Key Info:
            Public Key Algorithm: rsaEncryption
                RSA Public-Key: (2048 bit)
                Modulus:
                    00:a6:f7:2e:9d:12:80:5d:28:85:62:22:fa:53:c9:
                    49:62:ad:12:15:ad:8a:ff:a3:d6:ba:85:cf:84:e3:
                    0a:cf:76:38:5c:b5:a0:3f:bb:fc:98:97:4c:7d:f7:
                    90:ef:2d:60:b5:2b:01:2f:45:a5:72:f8:af:36:5f:
                    92:ca:18:63:9d:07:d4:91:6b:19:12:02:45:bf:19:
                    5c:39:50:d0:6f:e7:33:39:ec:bd:c8:bf:d2:e8:6c:
                    8c:5b:46:e9:50:da:71:e7:ce:61:e0:b2:fc:a8:66:
                    4b:4d:25:8c:65:a4:fa:fb:2d:8c:57:53:19:6f:ac:
                    44:0e:b9:b2:07:93:67:44:b1:6f:36:f1:c2:51:63:
                    23:86:b2:41:c1:28:08:78:be:5a:19:dd:62:96:33:
                    22:21:94:59:fe:e3:00:85:d6:18:26:17:d9:32:3d:
                    d9:b2:05:f5:1c:83:0f:5a:65:8f:9a:ae:a8:37:ed:
                    bc:2e:f0:8e:78:aa:4a:26:87:6d:19:4e:26:9d:9c:
                    9c:52:db:dd:3a:6e:86:c0:c7:b8:6a:02:2f:4a:71:
                    f9:ce:ef:d9:fe:ea:0d:2e:eb:bc:b6:7a:94:76:53:
                    46:22:1a:cb:5f:73:21:05:76:a0:7e:b6:66:84:7a:
                    0a:e4:da:c8:a5:93:e3:00:1a:b1:e5:80:2c:e6:15:
                    30:d1
                Exponent: 65537 (0x10001)
        X509v3 extensions:
            X509v3 Subject Alternative Name: 
                DNS:127.0.0.1, DNS:127.0.0.2
    Signature Algorithm: sha256WithRSAEncryption
         04:d2:aa:e1:44:5c:e3:d3:2c:60:31:8f:93:dc:38:fd:f2:ae:
         fa:ba:60:fe:9c:4f:b3:d9:c8:e5:37:5c:89:fc:30:b4:40:6d:
         94:79:b9:d1:f0:3f:72:6b:a7:19:fc:b3:e0:8b:e2:f2:04:98:
         55:41:79:26:f7:d7:11:f5:4d:51:ea:b4:e6:83:92:5a:21:a4:
         eb:8a:36:ea:6a:c4:08:f8:85:ec:dd:5f:46:96:f9:3c:6d:64:
         96:08:4e:72:db:24:1a:09:e5:ad:3d:40:81:6d:43:52:91:d1:
         d0:c3:58:94:b0:19:d0:3a:cf:37:c6:a6:a1:dc:48:8f:6c:06:
         d7:73:56:a7:12:ca:ab:1c:3e:83:3f:79:1d:05:6b:76:21:09:
         86:42:99:2a:f8:7c:01:00:66:e9:b8:96:99:a3:bd:b7:85:41:
         c9:0b:7f:ba:32:44:fa:51:62:2f:8b:27:df:99:62:39:67:d7:
         c7:f6:4d:d1:8d:16:a1:bd:9f:ef:31:5b:98:a4:d9:93:d9:f8:
         02:c0:20:da:b4:2e:d9:75:b8:4f:67:5b:00:1e:f2:63:b3:c2:
         e0:4d:1f:71:01:50:5b:f1:de:d1:b1:63:bb:bf:93:3d:51:d0:
         47:d2:e5:51:4d:9c:1b:c9:6b:94:aa:40:f4:ed:74:64:cd:5f:
         f0:14:a6:d7
-----BEGIN CERTIFICATE-----
MIICxzCCAa+gAwIBAgIBATANBgkqhkiG9w0BAQsFADAVMRMwEQYDVQQDDApVbmtu
b3duIENBMB4XDTcwMDEwMTAwMDAwMFoXDTM0MTAwNjE5MTYyMFowFDESMBAGA1UE
AwwJMTI3LjAuMC4xMIIBIjANBgkqhkiG9w0BAQEFAAOCAQ8AMIIBCgKCAQEApvcu
nRKAXSiFYiL6U8lJYq0SFa2K/6PWuoXPhOMKz3Y4XLWgP7v8mJdMffeQ7y1gtSsB
L0WlcvivNl+SyhhjnQfUkWsZEgJFvxlcOVDQb+czOey9yL/S6GyMW0bpUNpx585h
4LL8qGZLTSWMZaT6+y2MV1MZb6xEDrmyB5NnRLFvNvHCUWMjhrJBwSgIeL5aGd1i
ljMiIZRZ/uMAhdYYJhfZMj3ZsgX1HIMPWmWPmq6oN+28LvCOeKpKJodtGU4mnZyc
UtvdOm6GwMe4agIvSnH5zu/Z/uoNLuu8tnqUdlNGIhrLX3MhBXagfrZmhHoK5NrI
pZPjABqx5YAs5hUw0QIDAQABoyMwITAfBgNVHREEGDAWggkxMjcuMC4wLjGCCTEy
Ny4wLjAuMjANBgkqhkiG9w0BAQsFAAOCAQEABNKq4URc49MsYDGPk9w4/fKu+rpg
/pxPs9nI5TdcifwwtEBtlHm50fA/cmunGfyz4Ivi8gSYVUF5JvfXEfVNUeq05oOS
WiGk64o26mrECPiF7N1fRpb5PG1klghOctskGgnlrT1AgW1DUpHR0MNYlLAZ0DrP
N8amodxIj2wG13NWpxLKqxw+gz95HQVrdiEJhkKZKvh8AQBm6biWmaO9t4VByQt/
ujJE+lFiL4sn35liOWfXx/ZN0Y0Wob2f7zFbmKTZk9n4AsAg2rQu2XW4T2dbAB7y
Y7PC4E0fcQFQW/He0bFju7+TPVHQR9LlUU2cG8lrlKpA9O10ZM1f8BSm1w==
-----END CERTIFICATE-----
